
target/x86_64-unknown-uefi/debug/gem.efi:     file format pei-x86-64
target/x86_64-unknown-uefi/debug/gem.efi
architecture: i386:x86-64, flags 0x0000013f:
HAS_RELOC, EXEC_P, HAS_LINENO, HAS_DEBUG, HAS_SYMS, HAS_LOCALS, D_PAGED
start address 0x00000001400013f0

Characteristics 0x22
	executable
	large address aware

Time/Date		Sun Jan 16 16:02:06 2022
Magic			020b	(PE32+)
MajorLinkerVersion	14
MinorLinkerVersion	0
SizeOfCode		0000000000013e00
SizeOfInitializedData	0000000000004000
SizeOfUninitializedData	0000000000000000
AddressOfEntryPoint	00000000000013f0
BaseOfCode		0000000000001000
ImageBase		0000000140000000
SectionAlignment	00001000
FileAlignment		00000200
MajorOSystemVersion	6
MinorOSystemVersion	0
MajorImageVersion	0
MinorImageVersion	0
MajorSubsystemVersion	6
MinorSubsystemVersion	0
Win32Version		00000000
SizeOfImage		0001c000
SizeOfHeaders		00000400
CheckSum		00000000
Subsystem		0000000a	(EFI application)
DllCharacteristics	00008160
SizeOfStackReserve	0000000000100000
SizeOfStackCommit	0000000000001000
SizeOfHeapReserve	0000000000100000
SizeOfHeapCommit	0000000000001000
LoaderFlags		00000000
NumberOfRvaAndSizes	00000010

The Data Directory
Entry 0 0000000000000000 00000000 Export Directory [.edata (or where ever we found it)]
Entry 1 0000000000000000 00000000 Import Directory [parts of .idata]
Entry 2 0000000000000000 00000000 Resource Directory [.rsrc]
Entry 3 0000000000000000 00000000 Exception Directory [.pdata]
Entry 4 0000000000000000 00000000 Security Directory
Entry 5 000000000001b000 000001b4 Base Relocation Directory [.reloc]
Entry 6 0000000000018b3c 0000001c Debug Directory
Entry 7 0000000000000000 00000000 Description Directory
Entry 8 0000000000000000 00000000 Special Directory
Entry 9 0000000000000000 00000000 Thread Storage Directory [.tls]
Entry a 0000000000000000 00000000 Load Configuration Directory
Entry b 0000000000000000 00000000 Bound Import Directory
Entry c 0000000000000000 00000000 Import Address Table Directory
Entry d 0000000000000000 00000000 Delay Import Directory
Entry e 0000000000000000 00000000 CLR Runtime Header
Entry f 0000000000000000 00000000 Reserved


PE File Base Relocations (interpreted .reloc section contents)

Virtual Address: 00015000 Chunk size 108 (0x6c) Number of fixups 50
	reloc    0 offset   78 [15078] DIR64
	reloc    1 offset   b8 [150b8] DIR64
	reloc    2 offset   d0 [150d0] DIR64
	reloc    3 offset  100 [15100] DIR64
	reloc    4 offset  118 [15118] DIR64
	reloc    5 offset  150 [15150] DIR64
	reloc    6 offset  168 [15168] DIR64
	reloc    7 offset  180 [15180] DIR64
	reloc    8 offset  1c8 [151c8] DIR64
	reloc    9 offset  1e0 [151e0] DIR64
	reloc   10 offset  220 [15220] DIR64
	reloc   11 offset  270 [15270] DIR64
	reloc   12 offset  280 [15280] DIR64
	reloc   13 offset  2c8 [152c8] DIR64
	reloc   14 offset  2e0 [152e0] DIR64
	reloc   15 offset  2f8 [152f8] DIR64
	reloc   16 offset  338 [15338] DIR64
	reloc   17 offset  358 [15358] DIR64
	reloc   18 offset  368 [15368] DIR64
	reloc   19 offset  378 [15378] DIR64
	reloc   20 offset  388 [15388] DIR64
	reloc   21 offset  398 [15398] DIR64
	reloc   22 offset  458 [15458] DIR64
	reloc   23 offset  470 [15470] DIR64
	reloc   24 offset  848 [15848] DIR64
	reloc   25 offset  860 [15860] DIR64
	reloc   26 offset  868 [15868] DIR64
	reloc   27 offset  870 [15870] DIR64
	reloc   28 offset  928 [15928] DIR64
	reloc   29 offset  940 [15940] DIR64
	reloc   30 offset  958 [15958] DIR64
	reloc   31 offset  968 [15968] DIR64
	reloc   32 offset  9f0 [159f0] DIR64
	reloc   33 offset  a08 [15a08] DIR64
	reloc   34 offset  a20 [15a20] DIR64
	reloc   35 offset  a38 [15a38] DIR64
	reloc   36 offset  a50 [15a50] DIR64
	reloc   37 offset  a68 [15a68] DIR64
	reloc   38 offset  a80 [15a80] DIR64
	reloc   39 offset  b18 [15b18] DIR64
	reloc   40 offset  b30 [15b30] DIR64
	reloc   41 offset  b48 [15b48] DIR64
	reloc   42 offset  be8 [15be8] DIR64
	reloc   43 offset  c58 [15c58] DIR64
	reloc   44 offset  c68 [15c68] DIR64
	reloc   45 offset  cf8 [15cf8] DIR64
	reloc   46 offset  d10 [15d10] DIR64
	reloc   47 offset  d28 [15d28] DIR64
	reloc   48 offset  d40 [15d40] DIR64
	reloc   49 offset  dd8 [15dd8] DIR64

Virtual Address: 00016000 Chunk size 124 (0x7c) Number of fixups 58
	reloc    0 offset   90 [16090] DIR64
	reloc    1 offset  3e8 [163e8] DIR64
	reloc    2 offset  408 [16408] DIR64
	reloc    3 offset  418 [16418] DIR64
	reloc    4 offset  428 [16428] DIR64
	reloc    5 offset  440 [16440] DIR64
	reloc    6 offset  450 [16450] DIR64
	reloc    7 offset  460 [16460] DIR64
	reloc    8 offset  4e0 [164e0] DIR64
	reloc    9 offset  508 [16508] DIR64
	reloc   10 offset  520 [16520] DIR64
	reloc   11 offset  538 [16538] DIR64
	reloc   12 offset  580 [16580] DIR64
	reloc   13 offset  5b8 [165b8] DIR64
	reloc   14 offset  5d0 [165d0] DIR64
	reloc   15 offset  5e8 [165e8] DIR64
	reloc   16 offset  600 [16600] DIR64
	reloc   17 offset  618 [16618] DIR64
	reloc   18 offset  630 [16630] DIR64
	reloc   19 offset  648 [16648] DIR64
	reloc   20 offset  660 [16660] DIR64
	reloc   21 offset  6f8 [166f8] DIR64
	reloc   22 offset  7b8 [167b8] DIR64
	reloc   23 offset  7f8 [167f8] DIR64
	reloc   24 offset  850 [16850] DIR64
	reloc   25 offset  8a8 [168a8] DIR64
	reloc   26 offset  8f8 [168f8] DIR64
	reloc   27 offset  988 [16988] DIR64
	reloc   28 offset  9c8 [169c8] DIR64
	reloc   29 offset  9e0 [169e0] DIR64
	reloc   30 offset  a38 [16a38] DIR64
	reloc   31 offset  a48 [16a48] DIR64
	reloc   32 offset  a58 [16a58] DIR64
	reloc   33 offset  a68 [16a68] DIR64
	reloc   34 offset  b18 [16b18] DIR64
	reloc   35 offset  b30 [16b30] DIR64
	reloc   36 offset  b70 [16b70] DIR64
	reloc   37 offset  b80 [16b80] DIR64
	reloc   38 offset  b90 [16b90] DIR64
	reloc   39 offset  bc8 [16bc8] DIR64
	reloc   40 offset  bd8 [16bd8] DIR64
	reloc   41 offset  be8 [16be8] DIR64
	reloc   42 offset  bf8 [16bf8] DIR64
	reloc   43 offset  c40 [16c40] DIR64
	reloc   44 offset  c50 [16c50] DIR64
	reloc   45 offset  c60 [16c60] DIR64
	reloc   46 offset  c70 [16c70] DIR64
	reloc   47 offset  c80 [16c80] DIR64
	reloc   48 offset  d10 [16d10] DIR64
	reloc   49 offset  d28 [16d28] DIR64
	reloc   50 offset  d40 [16d40] DIR64
	reloc   51 offset  dc0 [16dc0] DIR64
	reloc   52 offset  e08 [16e08] DIR64
	reloc   53 offset  e48 [16e48] DIR64
	reloc   54 offset  e60 [16e60] DIR64
	reloc   55 offset  f40 [16f40] DIR64
	reloc   56 offset  f60 [16f60] DIR64
	reloc   57 offset  f80 [16f80] DIR64

Virtual Address: 00017000 Chunk size 128 (0x80) Number of fixups 60
	reloc    0 offset   10 [17010] DIR64
	reloc    1 offset   58 [17058] DIR64
	reloc    2 offset  110 [17110] DIR64
	reloc    3 offset  128 [17128] DIR64
	reloc    4 offset  1d8 [171d8] DIR64
	reloc    5 offset  218 [17218] DIR64
	reloc    6 offset  230 [17230] DIR64
	reloc    7 offset  318 [17318] DIR64
	reloc    8 offset  360 [17360] DIR64
	reloc    9 offset  370 [17370] DIR64
	reloc   10 offset  380 [17380] DIR64
	reloc   11 offset  398 [17398] DIR64
	reloc   12 offset  3b0 [173b0] DIR64
	reloc   13 offset  3d0 [173d0] DIR64
	reloc   14 offset  3e8 [173e8] DIR64
	reloc   15 offset  400 [17400] DIR64
	reloc   16 offset  418 [17418] DIR64
	reloc   17 offset  430 [17430] DIR64
	reloc   18 offset  528 [17528] DIR64
	reloc   19 offset  540 [17540] DIR64
	reloc   20 offset  558 [17558] DIR64
	reloc   21 offset  560 [17560] DIR64
	reloc   22 offset  568 [17568] DIR64
	reloc   23 offset  5f0 [175f0] DIR64
	reloc   24 offset  608 [17608] DIR64
	reloc   25 offset  620 [17620] DIR64
	reloc   26 offset  640 [17640] DIR64
	reloc   27 offset  660 [17660] DIR64
	reloc   28 offset  678 [17678] DIR64
	reloc   29 offset  680 [17680] DIR64
	reloc   30 offset  688 [17688] DIR64
	reloc   31 offset  708 [17708] DIR64
	reloc   32 offset  720 [17720] DIR64
	reloc   33 offset  778 [17778] DIR64
	reloc   34 offset  788 [17788] DIR64
	reloc   35 offset  798 [17798] DIR64
	reloc   36 offset  7a8 [177a8] DIR64
	reloc   37 offset  7c0 [177c0] DIR64
	reloc   38 offset  828 [17828] DIR64
	reloc   39 offset  838 [17838] DIR64
	reloc   40 offset  848 [17848] DIR64
	reloc   41 offset  858 [17858] DIR64
	reloc   42 offset  8c0 [178c0] DIR64
	reloc   43 offset  948 [17948] DIR64
	reloc   44 offset  960 [17960] DIR64
	reloc   45 offset  9f0 [179f0] DIR64
	reloc   46 offset  a80 [17a80] DIR64
	reloc   47 offset  a98 [17a98] DIR64
	reloc   48 offset  ad0 [17ad0] DIR64
	reloc   49 offset  bd0 [17bd0] DIR64
	reloc   50 offset  d08 [17d08] DIR64
	reloc   51 offset  dc0 [17dc0] DIR64
	reloc   52 offset  e18 [17e18] DIR64
	reloc   53 offset  ea8 [17ea8] DIR64
	reloc   54 offset  ef8 [17ef8] DIR64
	reloc   55 offset  f08 [17f08] DIR64
	reloc   56 offset  f28 [17f28] DIR64
	reloc   57 offset  f38 [17f38] DIR64
	reloc   58 offset  f70 [17f70] DIR64
	reloc   59 offset  f80 [17f80] DIR64

Virtual Address: 00018000 Chunk size 64 (0x40) Number of fixups 28
	reloc    0 offset   80 [18080] DIR64
	reloc    1 offset   98 [18098] DIR64
	reloc    2 offset   b0 [180b0] DIR64
	reloc    3 offset   c8 [180c8] DIR64
	reloc    4 offset   e0 [180e0] DIR64
	reloc    5 offset   f8 [180f8] DIR64
	reloc    6 offset  110 [18110] DIR64
	reloc    7 offset  128 [18128] DIR64
	reloc    8 offset  140 [18140] DIR64
	reloc    9 offset  158 [18158] DIR64
	reloc   10 offset  1e8 [181e8] DIR64
	reloc   11 offset  200 [18200] DIR64
	reloc   12 offset  5f0 [185f0] DIR64
	reloc   13 offset  6c0 [186c0] DIR64
	reloc   14 offset  708 [18708] DIR64
	reloc   15 offset  720 [18720] DIR64
	reloc   16 offset  738 [18738] DIR64
	reloc   17 offset  750 [18750] DIR64
	reloc   18 offset  808 [18808] DIR64
	reloc   19 offset  848 [18848] DIR64
	reloc   20 offset  880 [18880] DIR64
	reloc   21 offset  898 [18898] DIR64
	reloc   22 offset  8b0 [188b0] DIR64
	reloc   23 offset  968 [18968] DIR64
	reloc   24 offset  9c0 [189c0] DIR64
	reloc   25 offset  a50 [18a50] DIR64
	reloc   26 offset  ae0 [18ae0] DIR64
	reloc   27 offset    0 [18000] ABSOLUTE

Virtual Address: 0001a000 Chunk size 12 (0xc) Number of fixups 2
	reloc    0 offset   20 [1a020] DIR64
	reloc    1 offset    0 [1a000] ABSOLUTE

There is a debug directory in .rdata at 0x140018b3c

Type                Size     Rva      Offset
  2        CodeView 00000019 00018b58 00017d58

Sections:
Idx Name          Size      VMA               LMA               File off  Algn
  0 .text         00013c1e  0000000140001000  0000000140001000  00000400  2**4
                  CONTENTS, ALLOC, LOAD, READONLY, CODE
  1 .rdata        00003b71  0000000140015000  0000000140015000  00014200  2**4
                  CONTENTS, ALLOC, LOAD, READONLY, DATA
  2 .data         00000000  0000000140019000  0000000140019000  00000000  2**4
                  ALLOC, LOAD, DATA
  3 .eh_fram      00000040  000000014001a000  000000014001a000  00017e00  2**2
                  CONTENTS, ALLOC, LOAD, READONLY, DATA
  4 .reloc        000001b4  000000014001b000  000000014001b000  00018000  2**2
                  CONTENTS, ALLOC, LOAD, READONLY, DATA
SYMBOL TABLE:
[  0](sec  1)(fl 0x00)(ty   0)(scl   3) (nx 0) 0x0000000000000000 .text
[  1](sec  3)(fl 0x00)(ty   0)(scl   3) (nx 0) 0x0000000000000000 .data
[  2](sec  3)(fl 0x00)(ty   0)(scl   3) (nx 0) 0x0000000000000000 .bss
[  3](sec  1)(fl 0x00)(ty   0)(scl   3) (nx 0) 0x0000000000000000 .text
[  4](sec  1)(fl 0x00)(ty  20)(scl   2) (nx 0) 0x0000000000000000 _ZN4core3fmt9Arguments6new_v117h7f1861368112e726E
[  5](sec  2)(fl 0x00)(ty   0)(scl   3) (nx 0) 0x0000000000000000 .rdata
[  6](sec  2)(fl 0x00)(ty   0)(scl   3) (nx 0) 0x0000000000000000 __unnamed_4
[  7](sec  2)(fl 0x00)(ty   0)(scl   3) (nx 0) 0x0000000000000078 .rdata
[  8](sec  2)(fl 0x00)(ty   0)(scl   3) (nx 0) 0x0000000000000078 __unnamed_1
[  9](sec  2)(fl 0x00)(ty   0)(scl   3) (nx 0) 0x0000000000000090 .rdata
[ 10](sec  2)(fl 0x00)(ty   0)(scl   3) (nx 0) 0x0000000000000090 str.0
[ 11](sec  2)(fl 0x00)(ty   0)(scl   3) (nx 0) 0x00000000000000ac .rdata
[ 12](sec  2)(fl 0x00)(ty   0)(scl   3) (nx 0) 0x00000000000000ac __unnamed_2
[ 13](sec  2)(fl 0x00)(ty   0)(scl   3) (nx 0) 0x00000000000000b8 .rdata
[ 14](sec  2)(fl 0x00)(ty   0)(scl   3) (nx 0) 0x00000000000000b8 __unnamed_3
[ 15](sec  1)(fl 0x00)(ty  20)(scl   2) (nx 0) 0x00000000000033a0 _ZN4core9panicking5panic17h73ab6a17d58dd255E
[ 16](sec  1)(fl 0x00)(ty   0)(scl   3) (nx 0) 0x0000000000000114 .text
[ 17](sec  3)(fl 0x00)(ty   0)(scl   3) (nx 0) 0x0000000000000000 .data
[ 18](sec  3)(fl 0x00)(ty   0)(scl   3) (nx 0) 0x0000000000000000 .bss
[ 19](sec  1)(fl 0x00)(ty   0)(scl   3) (nx 0) 0x0000000000000120 .text
[ 20](sec  1)(fl 0x00)(ty  20)(scl   2) (nx 0) 0x0000000000000120 _ZN4core3fmt10ArgumentV13new17h0dfc20d19a15cb00E
[ 21](sec  1)(fl 0x00)(ty   0)(scl   3) (nx 0) 0x0000000000000178 .text
[ 22](sec  3)(fl 0x00)(ty   0)(scl   3) (nx 0) 0x0000000000000000 .data
[ 23](sec  3)(fl 0x00)(ty   0)(scl   3) (nx 0) 0x0000000000000000 .bss
[ 24](sec  1)(fl 0x00)(ty   0)(scl   3) (nx 0) 0x0000000000000180 .text
[ 25](sec  1)(fl 0x00)(ty  20)(scl   2) (nx 0) 0x0000000000000180 _ZN44_$LT$$RF$T$u20$as$u20$core..fmt..Display$GT$3fmt17h66972cc96c0efa7dE
[ 26](sec  1)(fl 0x00)(ty  20)(scl   2) (nx 0) 0x00000000000021e0 _ZN73_$LT$core..panic..panic_info..PanicInfo$u20$as$u20$core..fmt..Display$GT$3fmt17h9bfbc6183332d9e3E
[ 27](sec  1)(fl 0x00)(ty   0)(scl   3) (nx 0) 0x00000000000001a8 .text
[ 28](sec  3)(fl 0x00)(ty   0)(scl   3) (nx 0) 0x0000000000000000 .data
[ 29](sec  3)(fl 0x00)(ty   0)(scl   3) (nx 0) 0x0000000000000000 .bss
[ 30](sec  1)(fl 0x00)(ty   0)(scl   3) (nx 0) 0x00000000000001a8 .text
[ 31](sec  3)(fl 0x00)(ty   0)(scl   3) (nx 0) 0x0000000000000000 .data
[ 32](sec  3)(fl 0x00)(ty   0)(scl   3) (nx 0) 0x0000000000000000 .bss
[ 33](sec  1)(fl 0x00)(ty   0)(scl   3) (nx 0) 0x00000000000001b0 .text
[ 34](sec  1)(fl 0x00)(ty  20)(scl   2) (nx 0) 0x00000000000001b0 memcpy
[ 35](sec  1)(fl 0x00)(ty   0)(scl   3) (nx 0) 0x00000000000001f0 .text
[ 36](sec  1)(fl 0x00)(ty  20)(scl   2) (nx 0) 0x00000000000001f0 memset
[ 37](sec  1)(fl 0x00)(ty   0)(scl   3) (nx 0) 0x0000000000000230 .text
[ 38](sec  1)(fl 0x00)(ty  20)(scl   2) (nx 0) 0x0000000000000230 memcmp
[ 39](sec  1)(fl 0x00)(ty   0)(scl   3) (nx 0) 0x0000000000000354 .text
[ 40](sec  3)(fl 0x00)(ty   0)(scl   3) (nx 0) 0x0000000000000000 .data
[ 41](sec  3)(fl 0x00)(ty   0)(scl   3) (nx 0) 0x0000000000000000 .bss
[ 42](sec  1)(fl 0x00)(ty   0)(scl   3) (nx 0) 0x0000000000000360 .text
[ 43](sec  1)(fl 0x00)(ty  20)(scl   2) (nx 0) 0x0000000000000360 rust_begin_unwind
[ 44](sec  1)(fl 0x00)(ty   0)(scl   3) (nx 0) 0x00000000000003f0 .text
[ 45](sec  1)(fl 0x00)(ty  20)(scl   2) (nx 0) 0x00000000000003f0 efi_main
[ 46](sec  2)(fl 0x00)(ty   0)(scl   3) (nx 0) 0x00000000000000d0 .rdata
[ 47](sec  2)(fl 0x00)(ty   0)(scl   3) (nx 0) 0x00000000000000d0 __unnamed_2
[ 48](sec  2)(fl 0x00)(ty   0)(scl   3) (nx 0) 0x00000000000000d0 .rdata
[ 49](sec  2)(fl 0x00)(ty   0)(scl   3) (nx 0) 0x00000000000000d0 __unnamed_1
[ 50](sec  1)(fl 0x00)(ty  20)(scl   2) (nx 0) 0x0000000000001be0 _ZN4core3fmt5Write9write_fmt17hdf5bc2a984db37e4E
[ 51](sec  1)(fl 0x00)(ty  20)(scl   2) (nx 0) 0x00000000000009d0 _ZN3efi21register_system_table17hb007ea54d5018eb5E
[ 52](sec  1)(fl 0x00)(ty  20)(scl   2) (nx 0) 0x0000000000000a40 _ZN3efi14get_memory_map17hab1a5ce81f9275f0E
[ 53](sec  1)(fl 0x00)(ty   0)(scl   3) (nx 0) 0x0000000000000444 .text
[ 54](sec  3)(fl 0x00)(ty   0)(scl   3) (nx 0) 0x0000000000000000 .data
[ 55](sec  3)(fl 0x00)(ty   0)(scl   3) (nx 0) 0x0000000000000000 .bss
[ 56](sec  1)(fl 0x00)(ty   0)(scl   3) (nx 0) 0x0000000000000450 .text
[ 57](sec  1)(fl 0x00)(ty  20)(scl   2) (nx 0) 0x0000000000000450 _ZN3efi13EfiMemoryType29avail_post_exit_boot_services17h72aae25cdd39eb1eE
[ 58](sec  1)(fl 0x00)(ty   0)(scl   3) (nx 0) 0x00000000000004a0 .text
[ 59](sec  1)(fl 0x00)(ty  20)(scl   2) (nx 0) 0x00000000000004a0 _ZN69_$LT$efi..EfiMemoryType$u20$as$u20$core..convert..From$LT$u32$GT$$GT$4from17h0b618a98022a32e9E
[ 60](sec  1)(fl 0x00)(ty   0)(scl   3) (nx 0) 0x00000000000005c0 .text
[ 61](sec  1)(fl 0x00)(ty  20)(scl   2) (nx 0) 0x00000000000005c0 _ZN3efi13output_string17hd2e0541607b08b54E
[ 62](sec  1)(fl 0x00)(ty   0)(scl   3) (nx 0) 0x00000000000009d0 .text
[ 63](sec  1)(fl 0x00)(ty   0)(scl   3) (nx 0) 0x0000000000000a40 .text
[ 64](sec  1)(fl 0x00)(ty   0)(scl   3) (nx 0) 0x0000000000001040 .text
[ 65](sec  1)(fl 0x00)(ty  20)(scl   2) (nx 0) 0x0000000000001040 _ZN54_$LT$efi..ScreenWriter$u20$as$u20$core..fmt..Write$GT$9write_str17h6f64cc4e977efb5dE
[ 66](sec  1)(fl 0x00)(ty   0)(scl   3) (nx 0) 0x0000000000001090 .text
[ 67](sec  1)(fl 0x00)(ty  20)(scl   2) (nx 0) 0x0000000000001090 _ZN55_$LT$efi..EfiMemoryType$u20$as$u20$core..fmt..Debug$GT$3fmt17h1e396f889d55628eE
[ 68](sec  1)(fl 0x00)(ty   0)(scl   3) (nx 0) 0x0000000000001330 .text
[ 69](sec  1)(fl 0x00)(ty  20)(scl   2) (nx 0) 0x0000000000001330 _ZN51_$LT$efi..EfiStatus$u20$as$u20$core..fmt..Debug$GT$3fmt17hcd08002ddcb847fcE
[ 70](sec  1)(fl 0x00)(ty   0)(scl   3) (nx 0) 0x0000000000001ac0 .text
[ 71](sec  1)(fl 0x00)(ty  20)(scl   3) (nx 0) 0x0000000000001ac0 _ZN55_$LT$efi..EfiStatus$u20$as$u20$core..cmp..PartialEq$GT$2eq17he028dee4b19e650dE
[ 72](sec  2)(fl 0x00)(ty   0)(scl   3) (nx 0) 0x00000000000000e0 .rdata
[ 73](sec  2)(fl 0x00)(ty   0)(scl   3) (nx 0) 0x00000000000000e0 __unnamed_132
[ 74](sec  2)(fl 0x00)(ty   0)(scl   3) (nx 0) 0x0000000000000100 .rdata
[ 75](sec  2)(fl 0x00)(ty   0)(scl   3) (nx 0) 0x0000000000000100 __unnamed_1
[ 76](sec  2)(fl 0x00)(ty   0)(scl   3) (nx 0) 0x0000000000000118 .rdata
[ 77](sec  2)(fl 0x00)(ty   0)(scl   3) (nx 0) 0x0000000000000118 __unnamed_2
[ 78](sec  2)(fl 0x00)(ty   0)(scl   3) (nx 0) 0x0000000000000130 .rdata
[ 79](sec  2)(fl 0x00)(ty   0)(scl   3) (nx 0) 0x0000000000000130 str.0
[ 80](sec  2)(fl 0x00)(ty   0)(scl   3) (nx 0) 0x0000000000000150 .rdata
[ 81](sec  2)(fl 0x00)(ty   0)(scl   3) (nx 0) 0x0000000000000150 __unnamed_3
[ 82](sec  2)(fl 0x00)(ty   0)(scl   3) (nx 0) 0x0000000000000168 .rdata
[ 83](sec  2)(fl 0x00)(ty   0)(scl   3) (nx 0) 0x0000000000000168 __unnamed_4
[ 84](sec  2)(fl 0x00)(ty   0)(scl   3) (nx 0) 0x0000000000000180 .rdata
[ 85](sec  2)(fl 0x00)(ty   0)(scl   3) (nx 0) 0x0000000000000180 __unnamed_5
[ 86](sec  2)(fl 0x00)(ty   0)(scl   3) (nx 0) 0x00000000000001a0 .rdata
[ 87](sec  2)(fl 0x00)(ty   0)(scl   3) (nx 0) 0x00000000000001a0 str.1
[ 88](sec  2)(fl 0x00)(ty   0)(scl   3) (nx 0) 0x00000000000001c8 .rdata
[ 89](sec  2)(fl 0x00)(ty   0)(scl   3) (nx 0) 0x00000000000001c8 __unnamed_6
[ 90](sec  2)(fl 0x00)(ty   0)(scl   3) (nx 0) 0x00000000000001e0 .rdata
[ 91](sec  2)(fl 0x00)(ty   0)(scl   3) (nx 0) 0x00000000000001e0 __unnamed_7
[ 92](sec  3)(fl 0x00)(ty   0)(scl   3) (nx 0) 0x0000000000000000 .bss
[ 93](sec  3)(fl 0x00)(ty   0)(scl   3) (nx 0) 0x0000000000000000 _ZN3efi16EFI_SYSTEM_TABLE17h78284f98d717dfe6E
[ 94](sec  2)(fl 0x00)(ty   0)(scl   3) (nx 0) 0x00000000000001f8 .rdata
[ 95](sec  2)(fl 0x00)(ty   0)(scl   3) (nx 0) 0x00000000000001f8 __unnamed_8
[ 96](sec  2)(fl 0x00)(ty   0)(scl   3) (nx 0) 0x0000000000000220 .rdata
[ 97](sec  2)(fl 0x00)(ty   0)(scl   3) (nx 0) 0x0000000000000220 __unnamed_9
[ 98](sec  2)(fl 0x00)(ty   0)(scl   3) (nx 0) 0x0000000000000238 .rdata
[ 99](sec  2)(fl 0x00)(ty   0)(scl   3) (nx 0) 0x0000000000000238 __unnamed_10
[100](sec  2)(fl 0x00)(ty   0)(scl   3) (nx 0) 0x0000000000000248 .rdata
[101](sec  2)(fl 0x00)(ty   0)(scl   3) (nx 0) 0x0000000000000248 __unnamed_133
[102](sec  2)(fl 0x00)(ty   0)(scl   3) (nx 0) 0x000000000000024e .rdata
[103](sec  2)(fl 0x00)(ty   0)(scl   3) (nx 0) 0x000000000000024e __unnamed_134
[104](sec  2)(fl 0x00)(ty   0)(scl   3) (nx 0) 0x0000000000000270 .rdata
[105](sec  2)(fl 0x00)(ty   0)(scl   3) (nx 0) 0x0000000000000270 __unnamed_11
[106](sec  2)(fl 0x00)(ty   0)(scl   3) (nx 0) 0x0000000000000290 .rdata
[107](sec  2)(fl 0x00)(ty   0)(scl   3) (nx 0) 0x0000000000000290 __unnamed_12
[108](sec  2)(fl 0x00)(ty   0)(scl   3) (nx 0) 0x00000000000002c8 .rdata
[109](sec  2)(fl 0x00)(ty   0)(scl   3) (nx 0) 0x00000000000002c8 __unnamed_13
[110](sec  2)(fl 0x00)(ty   0)(scl   3) (nx 0) 0x00000000000002e0 .rdata
[111](sec  2)(fl 0x00)(ty   0)(scl   3) (nx 0) 0x00000000000002e0 __unnamed_14
[112](sec  2)(fl 0x00)(ty   0)(scl   3) (nx 0) 0x00000000000002f8 .rdata
[113](sec  2)(fl 0x00)(ty   0)(scl   3) (nx 0) 0x00000000000002f8 __unnamed_15
[114](sec  2)(fl 0x00)(ty   0)(scl   3) (nx 0) 0x0000000000000310 .rdata
[115](sec  2)(fl 0x00)(ty   0)(scl   3) (nx 0) 0x0000000000000310 str.2
[116](sec  2)(fl 0x00)(ty   0)(scl   3) (nx 0) 0x0000000000000338 .rdata
[117](sec  2)(fl 0x00)(ty   0)(scl   3) (nx 0) 0x0000000000000338 __unnamed_16
[118](sec  2)(fl 0x00)(ty   0)(scl   3) (nx 0) 0x0000000000000350 .rdata
[119](sec  2)(fl 0x00)(ty   0)(scl   3) (nx 0) 0x0000000000000350 __unnamed_135
[120](sec  2)(fl 0x00)(ty   0)(scl   3) (nx 0) 0x0000000000000350 .rdata
[121](sec  2)(fl 0x00)(ty   0)(scl   3) (nx 0) 0x0000000000000350 __unnamed_136
[122](sec  2)(fl 0x00)(ty   0)(scl   3) (nx 0) 0x0000000000000351 .rdata
[123](sec  2)(fl 0x00)(ty   0)(scl   3) (nx 0) 0x0000000000000351 __unnamed_137
[124](sec  2)(fl 0x00)(ty   0)(scl   3) (nx 0) 0x0000000000000358 .rdata
[125](sec  2)(fl 0x00)(ty   0)(scl   3) (nx 0) 0x0000000000000358 __unnamed_18
[126](sec  2)(fl 0x00)(ty   0)(scl   3) (nx 0) 0x0000000000000398 .rdata
[127](sec  2)(fl 0x00)(ty   0)(scl   3) (nx 0) 0x0000000000000398 __unnamed_17
[128](sec  2)(fl 0x00)(ty   0)(scl   3) (nx 0) 0x00000000000003b0 .rdata
[129](sec  2)(fl 0x00)(ty   0)(scl   3) (nx 0) 0x00000000000003b0 __unnamed_19
[130](sec  2)(fl 0x00)(ty   0)(scl   3) (nx 0) 0x0000000000000458 .rdata
[131](sec  2)(fl 0x00)(ty   0)(scl   3) (nx 0) 0x0000000000000458 __unnamed_21
[132](sec  2)(fl 0x00)(ty   0)(scl   3) (nx 0) 0x0000000000000478 .rdata
[133](sec  2)(fl 0x00)(ty   0)(scl   3) (nx 0) 0x0000000000000478 __unnamed_57
[134](sec  2)(fl 0x00)(ty   0)(scl   3) (nx 0) 0x000000000000047f .rdata
[135](sec  2)(fl 0x00)(ty   0)(scl   3) (nx 0) 0x000000000000047f __unnamed_56
[136](sec  2)(fl 0x00)(ty   0)(scl   3) (nx 0) 0x000000000000048f .rdata
[137](sec  2)(fl 0x00)(ty   0)(scl   3) (nx 0) 0x000000000000048f __unnamed_55
[138](sec  2)(fl 0x00)(ty   0)(scl   3) (nx 0) 0x0000000000000496 .rdata
[139](sec  2)(fl 0x00)(ty   0)(scl   3) (nx 0) 0x0000000000000496 __unnamed_54
[140](sec  2)(fl 0x00)(ty   0)(scl   3) (nx 0) 0x00000000000004ad .rdata
[141](sec  2)(fl 0x00)(ty   0)(scl   3) (nx 0) 0x00000000000004ad __unnamed_53
[142](sec  2)(fl 0x00)(ty   0)(scl   3) (nx 0) 0x00000000000004bb .rdata
[143](sec  2)(fl 0x00)(ty   0)(scl   3) (nx 0) 0x00000000000004bb __unnamed_52
[144](sec  2)(fl 0x00)(ty   0)(scl   3) (nx 0) 0x00000000000004c8 .rdata
[145](sec  2)(fl 0x00)(ty   0)(scl   3) (nx 0) 0x00000000000004c8 __unnamed_51
[146](sec  2)(fl 0x00)(ty   0)(scl   3) (nx 0) 0x00000000000004d9 .rdata
[147](sec  2)(fl 0x00)(ty   0)(scl   3) (nx 0) 0x00000000000004d9 __unnamed_50
[148](sec  2)(fl 0x00)(ty   0)(scl   3) (nx 0) 0x00000000000004e7 .rdata
[149](sec  2)(fl 0x00)(ty   0)(scl   3) (nx 0) 0x00000000000004e7 __unnamed_49
[150](sec  2)(fl 0x00)(ty   0)(scl   3) (nx 0) 0x00000000000004f9 .rdata
[151](sec  2)(fl 0x00)(ty   0)(scl   3) (nx 0) 0x00000000000004f9 __unnamed_48
[152](sec  2)(fl 0x00)(ty   0)(scl   3) (nx 0) 0x000000000000050c .rdata
[153](sec  2)(fl 0x00)(ty   0)(scl   3) (nx 0) 0x000000000000050c __unnamed_47
[154](sec  2)(fl 0x00)(ty   0)(scl   3) (nx 0) 0x000000000000051f .rdata
[155](sec  2)(fl 0x00)(ty   0)(scl   3) (nx 0) 0x000000000000051f __unnamed_46
[156](sec  2)(fl 0x00)(ty   0)(scl   3) (nx 0) 0x000000000000052f .rdata
[157](sec  2)(fl 0x00)(ty   0)(scl   3) (nx 0) 0x000000000000052f __unnamed_45
[158](sec  2)(fl 0x00)(ty   0)(scl   3) (nx 0) 0x000000000000053f .rdata
[159](sec  2)(fl 0x00)(ty   0)(scl   3) (nx 0) 0x000000000000053f __unnamed_44
[160](sec  2)(fl 0x00)(ty   0)(scl   3) (nx 0) 0x0000000000000549 .rdata
[161](sec  2)(fl 0x00)(ty   0)(scl   3) (nx 0) 0x0000000000000549 __unnamed_43
[162](sec  2)(fl 0x00)(ty   0)(scl   3) (nx 0) 0x0000000000000553 .rdata
[163](sec  2)(fl 0x00)(ty   0)(scl   3) (nx 0) 0x0000000000000553 __unnamed_42
[164](sec  2)(fl 0x00)(ty   0)(scl   3) (nx 0) 0x0000000000000565 .rdata
[165](sec  2)(fl 0x00)(ty   0)(scl   3) (nx 0) 0x0000000000000565 __unnamed_104
[166](sec  2)(fl 0x00)(ty   0)(scl   3) (nx 0) 0x0000000000000579 .rdata
[167](sec  2)(fl 0x00)(ty   0)(scl   3) (nx 0) 0x0000000000000579 __unnamed_103
[168](sec  2)(fl 0x00)(ty   0)(scl   3) (nx 0) 0x000000000000058a .rdata
[169](sec  2)(fl 0x00)(ty   0)(scl   3) (nx 0) 0x000000000000058a __unnamed_102
[170](sec  2)(fl 0x00)(ty   0)(scl   3) (nx 0) 0x000000000000059a .rdata
[171](sec  2)(fl 0x00)(ty   0)(scl   3) (nx 0) 0x000000000000059a __unnamed_101
[172](sec  2)(fl 0x00)(ty   0)(scl   3) (nx 0) 0x00000000000005af .rdata
[173](sec  2)(fl 0x00)(ty   0)(scl   3) (nx 0) 0x00000000000005af __unnamed_100
[174](sec  2)(fl 0x00)(ty   0)(scl   3) (nx 0) 0x00000000000005c2 .rdata
[175](sec  2)(fl 0x00)(ty   0)(scl   3) (nx 0) 0x00000000000005c2 __unnamed_99
[176](sec  2)(fl 0x00)(ty   0)(scl   3) (nx 0) 0x00000000000005d6 .rdata
[177](sec  2)(fl 0x00)(ty   0)(scl   3) (nx 0) 0x00000000000005d6 __unnamed_98
[178](sec  2)(fl 0x00)(ty   0)(scl   3) (nx 0) 0x00000000000005e9 .rdata
[179](sec  2)(fl 0x00)(ty   0)(scl   3) (nx 0) 0x00000000000005e9 __unnamed_97
[180](sec  2)(fl 0x00)(ty   0)(scl   3) (nx 0) 0x00000000000005fd .rdata
[181](sec  2)(fl 0x00)(ty   0)(scl   3) (nx 0) 0x00000000000005fd __unnamed_96
[182](sec  2)(fl 0x00)(ty   0)(scl   3) (nx 0) 0x000000000000060f .rdata
[183](sec  2)(fl 0x00)(ty   0)(scl   3) (nx 0) 0x000000000000060f __unnamed_95
[184](sec  2)(fl 0x00)(ty   0)(scl   3) (nx 0) 0x000000000000061f .rdata
[185](sec  2)(fl 0x00)(ty   0)(scl   3) (nx 0) 0x000000000000061f __unnamed_94
[186](sec  2)(fl 0x00)(ty   0)(scl   3) (nx 0) 0x0000000000000631 .rdata
[187](sec  2)(fl 0x00)(ty   0)(scl   3) (nx 0) 0x0000000000000631 __unnamed_93
[188](sec  2)(fl 0x00)(ty   0)(scl   3) (nx 0) 0x0000000000000647 .rdata
[189](sec  2)(fl 0x00)(ty   0)(scl   3) (nx 0) 0x0000000000000647 __unnamed_92
[190](sec  2)(fl 0x00)(ty   0)(scl   3) (nx 0) 0x0000000000000659 .rdata
[191](sec  2)(fl 0x00)(ty   0)(scl   3) (nx 0) 0x0000000000000659 __unnamed_91
[192](sec  2)(fl 0x00)(ty   0)(scl   3) (nx 0) 0x000000000000066e .rdata
[193](sec  2)(fl 0x00)(ty   0)(scl   3) (nx 0) 0x000000000000066e __unnamed_90
[194](sec  2)(fl 0x00)(ty   0)(scl   3) (nx 0) 0x000000000000067a .rdata
[195](sec  2)(fl 0x00)(ty   0)(scl   3) (nx 0) 0x000000000000067a __unnamed_89
[196](sec  2)(fl 0x00)(ty   0)(scl   3) (nx 0) 0x000000000000068c .rdata
[197](sec  2)(fl 0x00)(ty   0)(scl   3) (nx 0) 0x000000000000068c __unnamed_88
[198](sec  2)(fl 0x00)(ty   0)(scl   3) (nx 0) 0x000000000000069e .rdata
[199](sec  2)(fl 0x00)(ty   0)(scl   3) (nx 0) 0x000000000000069e __unnamed_87
[200](sec  2)(fl 0x00)(ty   0)(scl   3) (nx 0) 0x00000000000006aa .rdata
[201](sec  2)(fl 0x00)(ty   0)(scl   3) (nx 0) 0x00000000000006aa __unnamed_86
[202](sec  2)(fl 0x00)(ty   0)(scl   3) (nx 0) 0x00000000000006b7 .rdata
[203](sec  2)(fl 0x00)(ty   0)(scl   3) (nx 0) 0x00000000000006b7 __unnamed_85
[204](sec  2)(fl 0x00)(ty   0)(scl   3) (nx 0) 0x00000000000006c2 .rdata
[205](sec  2)(fl 0x00)(ty   0)(scl   3) (nx 0) 0x00000000000006c2 __unnamed_84
[206](sec  2)(fl 0x00)(ty   0)(scl   3) (nx 0) 0x00000000000006d6 .rdata
[207](sec  2)(fl 0x00)(ty   0)(scl   3) (nx 0) 0x00000000000006d6 __unnamed_83
[208](sec  2)(fl 0x00)(ty   0)(scl   3) (nx 0) 0x00000000000006ec .rdata
[209](sec  2)(fl 0x00)(ty   0)(scl   3) (nx 0) 0x00000000000006ec __unnamed_82
[210](sec  2)(fl 0x00)(ty   0)(scl   3) (nx 0) 0x00000000000006fc .rdata
[211](sec  2)(fl 0x00)(ty   0)(scl   3) (nx 0) 0x00000000000006fc __unnamed_81
[212](sec  2)(fl 0x00)(ty   0)(scl   3) (nx 0) 0x0000000000000708 .rdata
[213](sec  2)(fl 0x00)(ty   0)(scl   3) (nx 0) 0x0000000000000708 __unnamed_80
[214](sec  2)(fl 0x00)(ty   0)(scl   3) (nx 0) 0x0000000000000714 .rdata
[215](sec  2)(fl 0x00)(ty   0)(scl   3) (nx 0) 0x0000000000000714 __unnamed_79
[216](sec  2)(fl 0x00)(ty   0)(scl   3) (nx 0) 0x000000000000071e .rdata
[217](sec  2)(fl 0x00)(ty   0)(scl   3) (nx 0) 0x000000000000071e __unnamed_78
[218](sec  2)(fl 0x00)(ty   0)(scl   3) (nx 0) 0x000000000000072f .rdata
[219](sec  2)(fl 0x00)(ty   0)(scl   3) (nx 0) 0x000000000000072f __unnamed_77
[220](sec  2)(fl 0x00)(ty   0)(scl   3) (nx 0) 0x000000000000073c .rdata
[221](sec  2)(fl 0x00)(ty   0)(scl   3) (nx 0) 0x000000000000073c __unnamed_76
[222](sec  2)(fl 0x00)(ty   0)(scl   3) (nx 0) 0x0000000000000746 .rdata
[223](sec  2)(fl 0x00)(ty   0)(scl   3) (nx 0) 0x0000000000000746 __unnamed_75
[224](sec  2)(fl 0x00)(ty   0)(scl   3) (nx 0) 0x0000000000000752 .rdata
[225](sec  2)(fl 0x00)(ty   0)(scl   3) (nx 0) 0x0000000000000752 __unnamed_74
[226](sec  2)(fl 0x00)(ty   0)(scl   3) (nx 0) 0x000000000000075f .rdata
[227](sec  2)(fl 0x00)(ty   0)(scl   3) (nx 0) 0x000000000000075f __unnamed_73
[228](sec  2)(fl 0x00)(ty   0)(scl   3) (nx 0) 0x000000000000076e .rdata
[229](sec  2)(fl 0x00)(ty   0)(scl   3) (nx 0) 0x000000000000076e __unnamed_72
[230](sec  2)(fl 0x00)(ty   0)(scl   3) (nx 0) 0x0000000000000779 .rdata
[231](sec  2)(fl 0x00)(ty   0)(scl   3) (nx 0) 0x0000000000000779 __unnamed_71
[232](sec  2)(fl 0x00)(ty   0)(scl   3) (nx 0) 0x0000000000000788 .rdata
[233](sec  2)(fl 0x00)(ty   0)(scl   3) (nx 0) 0x0000000000000788 __unnamed_70
[234](sec  2)(fl 0x00)(ty   0)(scl   3) (nx 0) 0x0000000000000792 .rdata
[235](sec  2)(fl 0x00)(ty   0)(scl   3) (nx 0) 0x0000000000000792 __unnamed_69
[236](sec  2)(fl 0x00)(ty   0)(scl   3) (nx 0) 0x000000000000079f .rdata
[237](sec  2)(fl 0x00)(ty   0)(scl   3) (nx 0) 0x000000000000079f __unnamed_68
[238](sec  2)(fl 0x00)(ty   0)(scl   3) (nx 0) 0x00000000000007b1 .rdata
[239](sec  2)(fl 0x00)(ty   0)(scl   3) (nx 0) 0x00000000000007b1 __unnamed_67
[240](sec  2)(fl 0x00)(ty   0)(scl   3) (nx 0) 0x00000000000007c2 .rdata
[241](sec  2)(fl 0x00)(ty   0)(scl   3) (nx 0) 0x00000000000007c2 __unnamed_66
[242](sec  2)(fl 0x00)(ty   0)(scl   3) (nx 0) 0x00000000000007d3 .rdata
[243](sec  2)(fl 0x00)(ty   0)(scl   3) (nx 0) 0x00000000000007d3 __unnamed_65
[244](sec  2)(fl 0x00)(ty   0)(scl   3) (nx 0) 0x00000000000007e1 .rdata
[245](sec  2)(fl 0x00)(ty   0)(scl   3) (nx 0) 0x00000000000007e1 __unnamed_64
[246](sec  2)(fl 0x00)(ty   0)(scl   3) (nx 0) 0x00000000000007ec .rdata
[247](sec  2)(fl 0x00)(ty   0)(scl   3) (nx 0) 0x00000000000007ec __unnamed_63
[248](sec  2)(fl 0x00)(ty   0)(scl   3) (nx 0) 0x00000000000007fd .rdata
[249](sec  2)(fl 0x00)(ty   0)(scl   3) (nx 0) 0x00000000000007fd __unnamed_62
[250](sec  2)(fl 0x00)(ty   0)(scl   3) (nx 0) 0x000000000000080d .rdata
[251](sec  2)(fl 0x00)(ty   0)(scl   3) (nx 0) 0x000000000000080d __unnamed_61
[252](sec  2)(fl 0x00)(ty   0)(scl   3) (nx 0) 0x000000000000081b .rdata
[253](sec  2)(fl 0x00)(ty   0)(scl   3) (nx 0) 0x000000000000081b __unnamed_60
[254](sec  2)(fl 0x00)(ty   0)(scl   3) (nx 0) 0x000000000000082e .rdata
[255](sec  2)(fl 0x00)(ty   0)(scl   3) (nx 0) 0x000000000000082e __unnamed_59
[256](sec  2)(fl 0x00)(ty   0)(scl   3) (nx 0) 0x000000000000083a .rdata
[257](sec  2)(fl 0x00)(ty   0)(scl   3) (nx 0) 0x000000000000083a __unnamed_58
[258](sec  1)(fl 0x00)(ty  20)(scl   2) (nx 0) 0x0000000000007210 _ZN4core4sync6atomic18AtomicPtr$LT$T$GT$4load17h5bf31eb801cda9f7E
[259](sec  1)(fl 0x00)(ty  20)(scl   2) (nx 0) 0x0000000000001c30 _ZN4core3ptr7mut_ptr31_$LT$impl$u20$$BP$mut$u20$T$GT$7is_null17hd947dc549de4bdc1E
[260](sec  1)(fl 0x00)(ty  20)(scl   2) (nx 0) 0x0000000000009350 _ZN4core3str21_$LT$impl$u20$str$GT$12encode_utf1617h9d4cd544411395f4E
[261](sec  1)(fl 0x00)(ty  20)(scl   2) (nx 0) 0x0000000000009530 _ZN63_$LT$I$u20$as$u20$core..iter..traits..collect..IntoIterator$GT$9into_iter17h31e6623710e84ebeE
[262](sec  1)(fl 0x00)(ty  20)(scl   2) (nx 0) 0x0000000000009600 _ZN87_$LT$core..str..iter..EncodeUtf16$u20$as$u20$core..iter..traits..iterator..Iterator$GT$4next17h83958436b3b6b3fcE
[263](sec  1)(fl 0x00)(ty  20)(scl   2) (nx 0) 0x0000000000003400 _ZN4core9panicking18panic_bounds_check17h5cb0a4c24d2f17cbE
[264](sec  1)(fl 0x00)(ty  20)(scl   2) (nx 0) 0x0000000000009700 _ZN4core5slice29_$LT$impl$u20$$u5b$T$u5d$$GT$6as_ptr17h3e68e4e8253c0bd2E
[265](sec  1)(fl 0x00)(ty  20)(scl   2) (nx 0) 0x0000000000007190 _ZN4core4sync6atomic18AtomicPtr$LT$T$GT$16compare_exchange17h8802cf0f6fed1d10E
[266](sec  1)(fl 0x00)(ty  20)(scl   2) (nx 0) 0x0000000000009740 _ZN4core6result19Result$LT$T$C$E$GT$6expect17h8d1d4577a03afbddE
[267](sec  1)(fl 0x00)(ty   0)(scl   2) (nx 0) 0x00000000000097c4 __rust_probestack
[268](sec  1)(fl 0x00)(ty  20)(scl   2) (nx 0) 0x0000000000009800 _ZN4core3mem11size_of_val17h43c18312c03a9ee6E
[269](sec  1)(fl 0x00)(ty  20)(scl   2) (nx 0) 0x0000000000009d60 _ZN4core5slice29_$LT$impl$u20$$u5b$T$u5d$$GT$10as_mut_ptr17hd9a5c925e57f7335E
[270](sec  1)(fl 0x00)(ty  20)(scl   2) (nx 0) 0x000000000000a0e0 _ZN4core4iter6traits8iterator8Iterator7step_by17hbfd58eb84d9d2e22E
[271](sec  1)(fl 0x00)(ty  20)(scl   2) (nx 0) 0x000000000000a2b0 _ZN4core3fmt10ArgumentV13new17hbee38967ca38a763E
[272](sec  1)(fl 0x00)(ty  20)(scl   2) (nx 0) 0x000000000000a310 _ZN4core3fmt9Arguments16new_v1_formatted17hd97cf1272c1d5673E
[273](sec  1)(fl 0x00)(ty  20)(scl   2) (nx 0) 0x0000000000003500 _ZN4core9panicking9panic_fmt17hc5aa0b6a8d9576ccE
[274](sec  1)(fl 0x00)(ty  20)(scl   2) (nx 0) 0x000000000000a5c0 _ZN63_$LT$I$u20$as$u20$core..iter..traits..collect..IntoIterator$GT$9into_iter17hd0fdb7c7d68157d5E
[275](sec  1)(fl 0x00)(ty  20)(scl   2) (nx 0) 0x000000000000a4a0 _ZN105_$LT$core..iter..adapters..step_by..StepBy$LT$I$GT$$u20$as$u20$core..iter..traits..iterator..Iterator$GT$4next17h7e173dee840ceb05E
[276](sec  1)(fl 0x00)(ty  20)(scl   2) (nx 0) 0x000000000000a5f0 _ZN4core5array85_$LT$impl$u20$core..ops..index..Index$LT$I$GT$$u20$for$u20$$u5b$T$u3b$$u20$N$u5d$$GT$5index17h97f3c24570a1901dE
[277](sec  1)(fl 0x00)(ty  20)(scl   2) (nx 0) 0x0000000000009d40 _ZN4core5slice29_$LT$impl$u20$$u5b$T$u5d$$GT$6as_ptr17h84d3c76db58afb03E
[278](sec  1)(fl 0x00)(ty  20)(scl   2) (nx 0) 0x000000000000a630 _ZN4core3ptr14read_unaligned17hb87eef48ebd82656E
[279](sec  1)(fl 0x00)(ty  20)(scl   2) (nx 0) 0x000000000000a730 _ZN50_$LT$T$u20$as$u20$core..convert..Into$LT$U$GT$$GT$4into17h6f5960e76b14f66cE
[280](sec  1)(fl 0x00)(ty  20)(scl   2) (nx 0) 0x000000000000c580 _ZN4core3fmt3num53_$LT$impl$u20$core..fmt..LowerHex$u20$for$u20$u64$GT$3fmt17h0cf458aab6466cfdE
[281](sec  1)(fl 0x00)(ty  20)(scl   2) (nx 0) 0x0000000000004b80 _ZN4core3fmt10ArgumentV13new17h3457b262506a4cbcE
[282](sec  1)(fl 0x00)(ty  20)(scl   2) (nx 0) 0x000000000000a250 _ZN4core3fmt10ArgumentV13new17h68552c74f8c44cfdE
[283](sec  1)(fl 0x00)(ty  20)(scl   2) (nx 0) 0x0000000000006c50 _ZN4core3fmt9Formatter11debug_tuple17he2a873124e0c889fE
[284](sec  1)(fl 0x00)(ty  20)(scl   2) (nx 0) 0x000000000000d350 _ZN4core3fmt8builders10DebugTuple5field17he8e1f4ea229e3204E
[285](sec  1)(fl 0x00)(ty  20)(scl   2) (nx 0) 0x000000000000d620 _ZN4core3fmt8builders10DebugTuple6finish17hf6783bcb099c1e10E
[286](sec  1)(fl 0x00)(ty  20)(scl   2) (nx 0) 0x0000000000006b10 _ZN4core3fmt9Formatter9write_str17ha8b49a7091a4c62fE
[287](sec  1)(fl 0x00)(ty  20)(scl   2) (nx 0) 0x000000000000d910 _ZN4core3ptr30drop_in_place$LT$$RF$usize$GT$17hbd43c82fd3a065e9E
[288](sec  1)(fl 0x00)(ty  20)(scl   2) (nx 0) 0x0000000000006fe0 _ZN42_$LT$$RF$T$u20$as$u20$core..fmt..Debug$GT$3fmt17h5f76ec2a1c244d69E
[289](sec  1)(fl 0x00)(ty   0)(scl   3) (nx 0) 0x0000000000001b68 .text
[290](sec  3)(fl 0x00)(ty   0)(scl   3) (nx 0) 0x0000000000000000 .data
[291](sec  3)(fl 0x00)(ty   0)(scl   3) (nx 0) 0x0000000000000008 .bss
[292](sec  1)(fl 0x00)(ty   0)(scl   3) (nx 0) 0x0000000000001b70 .text
[293](sec  1)(fl 0x00)(ty  20)(scl   2) (nx 0) 0x0000000000001b70 _ZN4core3fmt5Write10write_char17hf6912e4a39ee3abdE
[294](sec  1)(fl 0x00)(ty   0)(scl   3) (nx 0) 0x0000000000001be0 .text
[295](sec  1)(fl 0x00)(ty   0)(scl   3) (nx 0) 0x0000000000001c30 .text
[296](sec  1)(fl 0x00)(ty   0)(scl   3) (nx 0) 0x0000000000001c60 .text
[297](sec  1)(fl 0x00)(ty  20)(scl   2) (nx 0) 0x0000000000001c60 _ZN50_$LT$$BP$mut$u20$T$u20$as$u20$core..fmt..Debug$GT$3fmt17he0ce9eb08ab03b99E
[298](sec  1)(fl 0x00)(ty   0)(scl   3) (nx 0) 0x0000000000001c90 .text
[299](sec  1)(fl 0x00)(ty  20)(scl   2) (nx 0) 0x0000000000001c90 _ZN50_$LT$$RF$mut$u20$W$u20$as$u20$core..fmt..Write$GT$10write_char17h0c51b396d713b76eE
[300](sec  1)(fl 0x00)(ty   0)(scl   3) (nx 0) 0x0000000000001cc0 .text
[301](sec  1)(fl 0x00)(ty  20)(scl   2) (nx 0) 0x0000000000001cc0 _ZN50_$LT$$RF$mut$u20$W$u20$as$u20$core..fmt..Write$GT$9write_fmt17h684e8b9b07399048E
[302](sec  1)(fl 0x00)(ty   0)(scl   3) (nx 0) 0x0000000000001d10 .text
[303](sec  1)(fl 0x00)(ty  20)(scl   2) (nx 0) 0x0000000000001d10 _ZN50_$LT$$RF$mut$u20$W$u20$as$u20$core..fmt..Write$GT$9write_str17h8fdf0cd758d67cadE
[304](sec  1)(fl 0x00)(ty   0)(scl   3) (nx 0) 0x0000000000001d40 .text
[305](sec  1)(fl 0x00)(ty  20)(scl   2) (nx 0) 0x0000000000001d40 _ZN52_$LT$$BP$mut$u20$T$u20$as$u20$core..fmt..Pointer$GT$3fmt17h2bb65d65860bd362E
[306](sec  1)(fl 0x00)(ty   0)(scl   3) (nx 0) 0x0000000000001d80 .text
[307](sec  1)(fl 0x00)(ty  20)(scl   2) (nx 0) 0x0000000000001d80 _ZN54_$LT$$BP$const$u20$T$u20$as$u20$core..fmt..Pointer$GT$3fmt17h64c2f53de0b47384E
[308](sec  2)(fl 0x00)(ty   0)(scl   3) (nx 0) 0x0000000000000848 .rdata
[309](sec  2)(fl 0x00)(ty   0)(scl   3) (nx 0) 0x0000000000000848 __unnamed_1
[310](sec  1)(fl 0x00)(ty  20)(scl   2) (nx 0) 0x000000000000e2a0 _ZN4core4char7methods22_$LT$impl$u20$char$GT$11encode_utf817h961a079440c1f72dE
[311](sec  1)(fl 0x00)(ty  20)(scl   2) (nx 0) 0x00000000000050b0 _ZN4core3fmt5write17h1db4ecad7a00b56aE
[312](sec  1)(fl 0x00)(ty  20)(scl   2) (nx 0) 0x000000000000e450 _ZN4core3ptr7mut_ptr31_$LT$impl$u20$$BP$mut$u20$T$GT$13guaranteed_eq17h7a991ba919ab4251E
[313](sec  1)(fl 0x00)(ty  20)(scl   2) (nx 0) 0x0000000000006bd0 _ZN4core3fmt9Formatter9alternate17h7d6ad256d1fa15bcE
[314](sec  1)(fl 0x00)(ty  20)(scl   2) (nx 0) 0x000000000000c4c0 _ZN4core3fmt3num55_$LT$impl$u20$core..fmt..LowerHex$u20$for$u20$usize$GT$3fmt17h494f08248635625dE
[315](sec  1)(fl 0x00)(ty  20)(scl   2) (nx 0) 0x000000000000c6d0 _ZN4core6option15Option$LT$T$GT$7is_none17h4059da9753ba88b8E
[316](sec  1)(fl 0x00)(ty  20)(scl   2) (nx 0) 0x000000000000d920 _ZN4core3ptr50drop_in_place$LT$$RF$mut$u20$efi..ScreenWriter$GT$17h7d73bb19368f7581E
[317](sec  1)(fl 0x00)(ty   0)(scl   3) (nx 0) 0x0000000000001e94 .text
[318](sec  3)(fl 0x00)(ty   0)(scl   3) (nx 0) 0x0000000000000000 .data
[319](sec  3)(fl 0x00)(ty   0)(scl   3) (nx 0) 0x0000000000000008 .bss
[320](sec  1)(fl 0x00)(ty   0)(scl   3) (nx 0) 0x0000000000001ea0 .text
[321](sec  1)(fl 0x00)(ty  20)(scl   2) (nx 0) 0x0000000000001ea0 _ZN4core3ops8function6FnOnce9call_once17ha3035675baec5d4dE
[322](sec  1)(fl 0x00)(ty   0)(scl   3) (nx 0) 0x0000000000001ee0 .text
[323](sec  1)(fl 0x00)(ty  20)(scl   3) (nx 0) 0x0000000000001ee0 _ZN4core3ops8function6FnOnce9call_once17hd9c30d15ff8b499fE
[324](sec  1)(fl 0x00)(ty   0)(scl   3) (nx 0) 0x0000000000001f10 .text
[325](sec  1)(fl 0x00)(ty  20)(scl   2) (nx 0) 0x0000000000001f10 _ZN4core3ptr52drop_in_place$LT$core..fmt..builders..PadAdapter$GT$17h32add4c95fda58f3E
[326](sec  1)(fl 0x00)(ty   0)(scl   3) (nx 0) 0x0000000000001f20 .text
[327](sec  1)(fl 0x00)(ty  20)(scl   2) (nx 0) 0x0000000000001f20 _ZN4core3ptr64drop_in_place$LT$$RF$mut$u20$core..fmt..builders..PadAdapter$GT$17h1a75f6d34caad3f2E
[328](sec  1)(fl 0x00)(ty   0)(scl   3) (nx 0) 0x0000000000001f30 .text
[329](sec  1)(fl 0x00)(ty  20)(scl   3) (nx 0) 0x0000000000001f30 _ZN4core3ptr88drop_in_place$LT$core..panic..panic_info..PanicInfo..internal_constructor..NoPayload$GT$17h3baccdac81ecee1dE
[330](sec  1)(fl 0x00)(ty   0)(scl   3) (nx 0) 0x0000000000001f40 .text
[331](sec  1)(fl 0x00)(ty  20)(scl   2) (nx 0) 0x0000000000001f40 _ZN4core3ptr9const_ptr33_$LT$impl$u20$$BP$const$u20$T$GT$7is_null17h21b80b56e40dc4d0E
[332](sec  1)(fl 0x00)(ty   0)(scl   3) (nx 0) 0x0000000000001f70 .text
[333](sec  1)(fl 0x00)(ty  20)(scl   2) (nx 0) 0x0000000000001f70 _ZN4core3ptr9const_ptr33_$LT$impl$u20$$BP$const$u20$T$GT$4cast17h3bd1e5d2773364a6E
[334](sec  1)(fl 0x00)(ty   0)(scl   3) (nx 0) 0x0000000000001f80 .text
[335](sec  1)(fl 0x00)(ty  20)(scl   2) (nx 0) 0x0000000000001f80 _ZN4core3ptr9const_ptr43_$LT$impl$u20$$BP$const$u20$$u5b$T$u5d$$GT$3len17h0e5818811f6875c0E
[336](sec  1)(fl 0x00)(ty   0)(scl   3) (nx 0) 0x0000000000001fb0 .text
[337](sec  1)(fl 0x00)(ty  20)(scl   2) (nx 0) 0x0000000000001fb0 _ZN4core3ptr9const_ptr43_$LT$impl$u20$$BP$const$u20$$u5b$T$u5d$$GT$6as_ptr17hc89488c78094d665E
[338](sec  1)(fl 0x00)(ty   0)(scl   3) (nx 0) 0x0000000000001fd0 .text
[339](sec  1)(fl 0x00)(ty  20)(scl   2) (nx 0) 0x0000000000001fd0 _ZN4core3ptr7mut_ptr31_$LT$impl$u20$$BP$mut$u20$T$GT$7is_null17h3e7217c898df044bE
[340](sec  1)(fl 0x00)(ty   0)(scl   3) (nx 0) 0x0000000000002000 .text
[341](sec  1)(fl 0x00)(ty  20)(scl   2) (nx 0) 0x0000000000002000 _ZN4core3ptr7mut_ptr31_$LT$impl$u20$$BP$mut$u20$T$GT$7is_null17he017cc649eaf030eE
[342](sec  1)(fl 0x00)(ty   0)(scl   3) (nx 0) 0x0000000000002030 .text
[343](sec  1)(fl 0x00)(ty  20)(scl   2) (nx 0) 0x0000000000002030 _ZN4core3cmp3Ord3min17h14b2681dd1addf7bE
[344](sec  1)(fl 0x00)(ty   0)(scl   3) (nx 0) 0x0000000000002060 .text
[345](sec  1)(fl 0x00)(ty  20)(scl   2) (nx 0) 0x0000000000002060 _ZN4core3cmp3min17h49031f89a3c73900E
[346](sec  1)(fl 0x00)(ty   0)(scl   3) (nx 0) 0x0000000000002090 .text
[347](sec  1)(fl 0x00)(ty  20)(scl   2) (nx 0) 0x0000000000002090 _ZN4core3cmp6min_by17h1f8cee23b10b985fE
[348](sec  1)(fl 0x00)(ty   0)(scl   3) (nx 0) 0x0000000000002130 .text
[349](sec  1)(fl 0x00)(ty  20)(scl   2) (nx 0) 0x0000000000002130 _ZN50_$LT$T$u20$as$u20$core..convert..From$LT$T$GT$$GT$4from17hb149d06c2a17f699E
[350](sec  1)(fl 0x00)(ty   0)(scl   3) (nx 0) 0x0000000000002140 .text
[351](sec  1)(fl 0x00)(ty  20)(scl   2) (nx 0) 0x0000000000002140 _ZN36_$LT$T$u20$as$u20$core..any..Any$GT$7type_id17h0b6cda03ad64453fE
[352](sec  1)(fl 0x00)(ty   0)(scl   3) (nx 0) 0x0000000000002160 .text
[353](sec  1)(fl 0x00)(ty  20)(scl   2) (nx 0) 0x0000000000002160 _ZN4core5array85_$LT$impl$u20$core..ops..index..Index$LT$I$GT$$u20$for$u20$$u5b$T$u3b$$u20$N$u5d$$GT$5index17haa9c57b255997bd9E
[354](sec  1)(fl 0x00)(ty   0)(scl   3) (nx 0) 0x00000000000021a0 .text
[355](sec  1)(fl 0x00)(ty  20)(scl   2) (nx 0) 0x00000000000021a0 _ZN4core5panic10panic_info9PanicInfo20internal_constructor17hd5f324932b62ce39E
[356](sec  1)(fl 0x00)(ty   0)(scl   3) (nx 0) 0x00000000000021e0 .text
[357](sec  1)(fl 0x00)(ty   0)(scl   3) (nx 0) 0x0000000000002480 .text
[358](sec  1)(fl 0x00)(ty  20)(scl   3) (nx 0) 0x0000000000002480 _ZN4core5slice6memchr18contains_zero_byte17h6bcdfae5c73ebf9bE
[359](sec  1)(fl 0x00)(ty   0)(scl   3) (nx 0) 0x00000000000024f0 .text
[360](sec  1)(fl 0x00)(ty  20)(scl   3) (nx 0) 0x00000000000024f0 _ZN4core5slice6memchr11repeat_byte17h5a17a1478aee42e9E
[361](sec  1)(fl 0x00)(ty   0)(scl   3) (nx 0) 0x0000000000002540 .text
[362](sec  1)(fl 0x00)(ty  20)(scl   2) (nx 0) 0x0000000000002540 _ZN4core5slice6memchr6memchr17h862f51e279d94092E
[363](sec  1)(fl 0x00)(ty   0)(scl   3) (nx 0) 0x00000000000025d0 .text
[364](sec  1)(fl 0x00)(ty  20)(scl   2) (nx 0) 0x00000000000025d0 _ZN4core5slice6memchr6memchr28_$u7b$$u7b$closure$u7d$$u7d$17h356c107c00d37c09E
[365](sec  1)(fl 0x00)(ty   0)(scl   3) (nx 0) 0x0000000000002600 .text
[366](sec  1)(fl 0x00)(ty  20)(scl   2) (nx 0) 0x0000000000002600 _ZN4core5slice6memchr19memchr_general_case17h4aceaddde02ffb62E
[367](sec  1)(fl 0x00)(ty   0)(scl   3) (nx 0) 0x0000000000002a90 .text
[368](sec  1)(fl 0x00)(ty  20)(scl   2) (nx 0) 0x0000000000002a90 _ZN4core5slice6memchr19memchr_general_case28_$u7b$$u7b$closure$u7d$$u7d$17h48f54924c840af59E
[369](sec  1)(fl 0x00)(ty   0)(scl   3) (nx 0) 0x0000000000002ac0 .text
[370](sec  1)(fl 0x00)(ty  20)(scl   2) (nx 0) 0x0000000000002ac0 _ZN4core5slice6memchr19memchr_general_case28_$u7b$$u7b$closure$u7d$$u7d$17hf0b5b7915fc01bf2E
[371](sec  1)(fl 0x00)(ty   0)(scl   3) (nx 0) 0x0000000000002af0 .text
[372](sec  1)(fl 0x00)(ty  20)(scl   2) (nx 0) 0x0000000000002af0 _ZN4core5slice6memchr19memchr_general_case28_$u7b$$u7b$closure$u7d$$u7d$17h00dbe917e63012d4E
[373](sec  1)(fl 0x00)(ty   0)(scl   3) (nx 0) 0x0000000000002b40 .text
[374](sec  1)(fl 0x00)(ty  20)(scl   2) (nx 0) 0x0000000000002b40 _ZN4core5slice5index74_$LT$impl$u20$core..ops..index..Index$LT$I$GT$$u20$for$u20$$u5b$T$u5d$$GT$5index17h4d607cadad0b197eE
[375](sec  1)(fl 0x00)(ty   0)(scl   3) (nx 0) 0x0000000000002b90 .text
[376](sec  1)(fl 0x00)(ty  20)(scl   2) (nx 0) 0x0000000000002b90 _ZN4core5slice29_$LT$impl$u20$$u5b$T$u5d$$GT$6as_ptr17heeabb63a1bcb40c1E
[377](sec  1)(fl 0x00)(ty   0)(scl   3) (nx 0) 0x0000000000002bb0 .text
[378](sec  1)(fl 0x00)(ty  20)(scl   2) (nx 0) 0x0000000000002bb0 _ZN4core5slice29_$LT$impl$u20$$u5b$T$u5d$$GT$6as_ptr17hf47429b1ada300d7E
[379](sec  1)(fl 0x00)(ty   0)(scl   3) (nx 0) 0x0000000000002bd0 .text
[380](sec  1)(fl 0x00)(ty  20)(scl   2) (nx 0) 0x0000000000002bd0 _ZN4core5slice29_$LT$impl$u20$$u5b$T$u5d$$GT$10as_mut_ptr17hf3ebf01e72772e58E
[381](sec  1)(fl 0x00)(ty   0)(scl   3) (nx 0) 0x0000000000002bf0 .text
[382](sec  1)(fl 0x00)(ty  20)(scl   2) (nx 0) 0x0000000000002bf0 _ZN4core5slice29_$LT$impl$u20$$u5b$T$u5d$$GT$4iter17he01d66c788291b34E
[383](sec  1)(fl 0x00)(ty   0)(scl   3) (nx 0) 0x0000000000002c20 .text
[384](sec  1)(fl 0x00)(ty  20)(scl   2) (nx 0) 0x0000000000002c20 _ZN4core5slice29_$LT$impl$u20$$u5b$T$u5d$$GT$8iter_mut17hb7933985d9211a82E
[385](sec  1)(fl 0x00)(ty   0)(scl   3) (nx 0) 0x0000000000002c50 .text
[386](sec  1)(fl 0x00)(ty  20)(scl   3) (nx 0) 0x0000000000002c50 _ZN4core3str11validations15utf8_first_byte17hea992f7a32c12743E
[387](sec  1)(fl 0x00)(ty   0)(scl   3) (nx 0) 0x0000000000002cb0 .text
[388](sec  1)(fl 0x00)(ty  20)(scl   3) (nx 0) 0x0000000000002cb0 _ZN4core3str11validations18utf8_acc_cont_byte17h25d45f16e488cae1E
[389](sec  1)(fl 0x00)(ty   0)(scl   3) (nx 0) 0x0000000000002ce0 .text
[390](sec  1)(fl 0x00)(ty  20)(scl   2) (nx 0) 0x0000000000002ce0 _ZN4core3str11validations17utf8_is_cont_byte17hbf5f12596c99e1e8E
[391](sec  1)(fl 0x00)(ty   0)(scl   3) (nx 0) 0x0000000000002d00 .text
[392](sec  1)(fl 0x00)(ty  20)(scl   3) (nx 0) 0x0000000000002d00 _ZN4core3str11validations11unwrap_or_017h1621a734042de1f2E
[393](sec  1)(fl 0x00)(ty   0)(scl   3) (nx 0) 0x0000000000002d40 .text
[394](sec  1)(fl 0x00)(ty  20)(scl   2) (nx 0) 0x0000000000002d40 _ZN4core3str11validations15next_code_point17h51986761e529a32dE
[395](sec  1)(fl 0x00)(ty   0)(scl   3) (nx 0) 0x0000000000002f30 .text
[396](sec  1)(fl 0x00)(ty  20)(scl   2) (nx 0) 0x0000000000002f30 _ZN4core3str11validations25truncate_to_char_boundary17hc937843abe727830E
[397](sec  1)(fl 0x00)(ty   0)(scl   3) (nx 0) 0x0000000000003080 .text
[398](sec  1)(fl 0x00)(ty  20)(scl   2) (nx 0) 0x0000000000003080 _ZN60_$LT$core..cmp..Ordering$u20$as$u20$core..cmp..PartialEq$GT$2eq17h7006ef963930f32dE
[399](sec  1)(fl 0x00)(ty   0)(scl   3) (nx 0) 0x00000000000030c0 .text
[400](sec  1)(fl 0x00)(ty  20)(scl   2) (nx 0) 0x00000000000030c0 _ZN49_$LT$usize$u20$as$u20$core..iter..range..Step$GT$17forward_unchecked17h3ccd1be2e07284abE
[401](sec  2)(fl 0x00)(ty   0)(scl   3) (nx 0) 0x0000000000000880 .rdata
[402](sec  2)(fl 0x00)(ty   0)(scl   3) (nx 0) 0x0000000000000880 str.0
[403](sec  2)(fl 0x00)(ty   0)(scl   3) (nx 0) 0x00000000000008b0 .rdata
[404](sec  2)(fl 0x00)(ty   0)(scl   3) (nx 0) 0x00000000000008b0 str.1
[405](sec  2)(fl 0x00)(ty   0)(scl   3) (nx 0) 0x00000000000008e0 .rdata
[406](sec  2)(fl 0x00)(ty   0)(scl   3) (nx 0) 0x00000000000008e0 str.2
[407](sec  2)(fl 0x00)(ty   0)(scl   3) (nx 0) 0x0000000000000900 .rdata
[408](sec  2)(fl 0x00)(ty   0)(scl   3) (nx 0) 0x0000000000000900 str.4
[409](sec  2)(fl 0x00)(ty   0)(scl   3) (nx 0) 0x0000000000000924 .rdata
[410](sec  2)(fl 0x00)(ty   0)(scl   3) (nx 0) 0x0000000000000924 __unnamed_33
[411](sec  2)(fl 0x00)(ty   0)(scl   3) (nx 0) 0x0000000000000928 .rdata
[412](sec  2)(fl 0x00)(ty   0)(scl   3) (nx 0) 0x0000000000000928 __unnamed_34
[413](sec  2)(fl 0x00)(ty   0)(scl   3) (nx 0) 0x0000000000000948 .rdata
[414](sec  2)(fl 0x00)(ty   0)(scl   3) (nx 0) 0x0000000000000948 __unnamed_35
[415](sec  2)(fl 0x00)(ty   0)(scl   3) (nx 0) 0x0000000000000954 .rdata
[416](sec  2)(fl 0x00)(ty   0)(scl   3) (nx 0) 0x0000000000000954 __unnamed_117
[417](sec  2)(fl 0x00)(ty   0)(scl   3) (nx 0) 0x0000000000000955 .rdata
[418](sec  2)(fl 0x00)(ty   0)(scl   3) (nx 0) 0x0000000000000955 __unnamed_118
[419](sec  2)(fl 0x00)(ty   0)(scl   3) (nx 0) 0x0000000000000958 .rdata
[420](sec  2)(fl 0x00)(ty   0)(scl   3) (nx 0) 0x0000000000000958 __unnamed_36
[421](sec  2)(fl 0x00)(ty   0)(scl   3) (nx 0) 0x0000000000000978 .rdata
[422](sec  2)(fl 0x00)(ty   0)(scl   3) (nx 0) 0x0000000000000978 __unnamed_120
[423](sec  2)(fl 0x00)(ty   0)(scl   3) (nx 0) 0x00000000000009f0 .rdata
[424](sec  2)(fl 0x00)(ty   0)(scl   3) (nx 0) 0x00000000000009f0 __unnamed_38
[425](sec  2)(fl 0x00)(ty   0)(scl   3) (nx 0) 0x0000000000000a08 .rdata
[426](sec  2)(fl 0x00)(ty   0)(scl   3) (nx 0) 0x0000000000000a08 __unnamed_39
[427](sec  2)(fl 0x00)(ty   0)(scl   3) (nx 0) 0x0000000000000a20 .rdata
[428](sec  2)(fl 0x00)(ty   0)(scl   3) (nx 0) 0x0000000000000a20 __unnamed_40
[429](sec  2)(fl 0x00)(ty   0)(scl   3) (nx 0) 0x0000000000000a38 .rdata
[430](sec  2)(fl 0x00)(ty   0)(scl   3) (nx 0) 0x0000000000000a38 __unnamed_42
[431](sec  2)(fl 0x00)(ty   0)(scl   3) (nx 0) 0x0000000000000a50 .rdata
[432](sec  2)(fl 0x00)(ty   0)(scl   3) (nx 0) 0x0000000000000a50 __unnamed_43
[433](sec  2)(fl 0x00)(ty   0)(scl   3) (nx 0) 0x0000000000000a68 .rdata
[434](sec  2)(fl 0x00)(ty   0)(scl   3) (nx 0) 0x0000000000000a68 __unnamed_41
[435](sec  2)(fl 0x00)(ty   0)(scl   3) (nx 0) 0x0000000000000a80 .rdata
[436](sec  2)(fl 0x00)(ty   0)(scl   3) (nx 0) 0x0000000000000a80 __unnamed_44
[437](sec  2)(fl 0x00)(ty   0)(scl   3) (nx 0) 0x0000000000000a98 .rdata
[438](sec  2)(fl 0x00)(ty   0)(scl   3) (nx 0) 0x0000000000000a98 __unnamed_121
[439](sec  2)(fl 0x00)(ty   0)(scl   3) (nx 0) 0x0000000000000b18 .rdata
[440](sec  2)(fl 0x00)(ty   0)(scl   3) (nx 0) 0x0000000000000b18 __unnamed_54
[441](sec  2)(fl 0x00)(ty   0)(scl   3) (nx 0) 0x0000000000000b30 .rdata
[442](sec  2)(fl 0x00)(ty   0)(scl   3) (nx 0) 0x0000000000000b30 __unnamed_57
[443](sec  2)(fl 0x00)(ty   0)(scl   3) (nx 0) 0x0000000000000b48 .rdata
[444](sec  2)(fl 0x00)(ty   0)(scl   3) (nx 0) 0x0000000000000b48 __unnamed_56
[445](sec  1)(fl 0x00)(ty  20)(scl   2) (nx 0) 0x0000000000004af0 _ZN4core3fmt12USIZE_MARKER28_$u7b$$u7b$closure$u7d$$u7d$17h95391b8a339db9f3E
[446](sec  1)(fl 0x00)(ty  20)(scl   2) (nx 0) 0x000000000000f4e0 _ZN4core3cmp5impls50_$LT$impl$u20$core..cmp..Ord$u20$for$u20$usize$GT$3cmp17h9fec45784536ccf4E
[447](sec  1)(fl 0x00)(ty  20)(scl   2) (nx 0) 0x00000000000104b0 _ZN4core3ptr9const_ptr33_$LT$impl$u20$$BP$const$u20$T$GT$13guaranteed_eq17h097d0d254010b609E
[448](sec  1)(fl 0x00)(ty  20)(scl   2) (nx 0) 0x00000000000102f0 _ZN4core3ptr8metadata8metadata17hba661148ce3fee12E
[449](sec  1)(fl 0x00)(ty  20)(scl   2) (nx 0) 0x0000000000004490 _ZN4core3any6TypeId2of17hee85fb27b7373205E
[450](sec  1)(fl 0x00)(ty  20)(scl   2) (nx 0) 0x00000000000048e0 _ZN79_$LT$core..result..Result$LT$T$C$E$GT$$u20$as$u20$core..ops..try_trait..Try$GT$6branch17h286e024876362a7bE
[451](sec  1)(fl 0x00)(ty  20)(scl   2) (nx 0) 0x0000000000004a00 _ZN153_$LT$core..result..Result$LT$T$C$F$GT$$u20$as$u20$core..ops..try_trait..FromResidual$LT$core..result..Result$LT$core..convert..Infallible$C$E$GT$$GT$$GT$13from_residual17h4d8c87f33f756b37E
[452](sec  1)(fl 0x00)(ty  20)(scl   2) (nx 0) 0x0000000000007040 _ZN44_$LT$$RF$T$u20$as$u20$core..fmt..Display$GT$3fmt17hba830dd55e348345E
[453](sec  1)(fl 0x00)(ty  20)(scl   2) (nx 0) 0x0000000000004c40 _ZN4core3fmt10ArgumentV13new17h4a218b3e0e35d084E
[454](sec  1)(fl 0x00)(ty  20)(scl   2) (nx 0) 0x0000000000004430 _ZN54_$LT$dyn$u20$core..any..Any$u2b$core..marker..Send$GT$12downcast_ref17h376bc0b55d77b726E
[455](sec  1)(fl 0x00)(ty  20)(scl   2) (nx 0) 0x0000000000007070 _ZN44_$LT$$RF$T$u20$as$u20$core..fmt..Display$GT$3fmt17hcbb3a11f9e3e1779E
[456](sec  1)(fl 0x00)(ty  20)(scl   2) (nx 0) 0x0000000000004e20 _ZN4core3fmt10ArgumentV13new17hbd62fa8ffb3a6297E
[457](sec  1)(fl 0x00)(ty  20)(scl   2) (nx 0) 0x00000000000044e0 _ZN70_$LT$core..panic..location..Location$u20$as$u20$core..fmt..Display$GT$3fmt17ha2241ac0b92fc0d3E
[458](sec  1)(fl 0x00)(ty  20)(scl   2) (nx 0) 0x0000000000004f30 _ZN4core3fmt9Arguments6new_v117ha7600998b3a09d81E
[459](sec  1)(fl 0x00)(ty  20)(scl   2) (nx 0) 0x0000000000006b50 _ZN4core3fmt9Formatter9write_fmt17h030e2f21ebd300aeE
[460](sec  1)(fl 0x00)(ty  20)(scl   2) (nx 0) 0x0000000000006bb0 _ZN4core3fmt9Formatter9sign_plus17h070ebc2a906cd390E
[461](sec  1)(fl 0x00)(ty  20)(scl   2) (nx 0) 0x0000000000009d80 _ZN4core5slice29_$LT$impl$u20$$u5b$T$u5d$$GT$4iter17h107550450aedb9bcE
[462](sec  1)(fl 0x00)(ty  20)(scl   2) (nx 0) 0x0000000000011fd0 _ZN91_$LT$core..slice..iter..Iter$LT$T$GT$$u20$as$u20$core..iter..traits..iterator..Iterator$GT$8position17hbd0eac2ea1fd3851E
[463](sec  1)(fl 0x00)(ty  20)(scl   2) (nx 0) 0x00000000000104e0 _ZN4core3ptr9const_ptr33_$LT$impl$u20$$BP$const$u20$T$GT$12align_offset17ha55ac6ec615097faE
[464](sec  1)(fl 0x00)(ty  20)(scl   2) (nx 0) 0x00000000000107a0 _ZN4core5slice5index74_$LT$impl$u20$core..ops..index..Index$LT$I$GT$$u20$for$u20$$u5b$T$u5d$$GT$5index17h2b6acfc460a52245E
[465](sec  1)(fl 0x00)(ty  20)(scl   2) (nx 0) 0x0000000000011dd0 _ZN91_$LT$core..slice..iter..Iter$LT$T$GT$$u20$as$u20$core..iter..traits..iterator..Iterator$GT$8position17h418e14a9a516b6fbE
[466](sec  1)(fl 0x00)(ty  20)(scl   2) (nx 0) 0x0000000000010850 _ZN4core5slice5index74_$LT$impl$u20$core..ops..index..Index$LT$I$GT$$u20$for$u20$$u5b$T$u5d$$GT$5index17h433d26535c79568fE
[467](sec  1)(fl 0x00)(ty  20)(scl   2) (nx 0) 0x00000000000121d0 _ZN91_$LT$core..slice..iter..Iter$LT$T$GT$$u20$as$u20$core..iter..traits..iterator..Iterator$GT$8position17hedba8139bc1d1717E
[468](sec  1)(fl 0x00)(ty  20)(scl   2) (nx 0) 0x000000000000c960 _ZN4core6option15Option$LT$T$GT$3map17h2b2bd8d3fb2813b6E
[469](sec  1)(fl 0x00)(ty  20)(scl   2) (nx 0) 0x000000000000ef20 _ZN110_$LT$core..ops..range..RangeFrom$LT$usize$GT$$u20$as$u20$core..slice..index..SliceIndex$LT$$u5b$T$u5d$$GT$$GT$5index17h73adba233a5d03f1E
[470](sec  1)(fl 0x00)(ty  20)(scl   2) (nx 0) 0x0000000000011470 _ZN4core5slice4iter13Iter$LT$T$GT$3new17h34b8bbb2c95cee1fE
[471](sec  1)(fl 0x00)(ty  20)(scl   2) (nx 0) 0x00000000000117a0 _ZN4core5slice4iter16IterMut$LT$T$GT$3new17h1d403a3d308182d5E
[472](sec  1)(fl 0x00)(ty  20)(scl   2) (nx 0) 0x0000000000011b90 _ZN91_$LT$core..slice..iter..Iter$LT$T$GT$$u20$as$u20$core..iter..traits..iterator..Iterator$GT$4next17hcb6399c4460d1a86E
[473](sec  1)(fl 0x00)(ty  20)(scl   2) (nx 0) 0x000000000000ce30 _ZN75_$LT$core..option..Option$LT$T$GT$$u20$as$u20$core..ops..try_trait..Try$GT$6branch17h97206e340f616fb0E
[474](sec  1)(fl 0x00)(ty  20)(scl   2) (nx 0) 0x000000000000cf10 _ZN84_$LT$core..option..Option$LT$T$GT$$u20$as$u20$core..ops..try_trait..FromResidual$GT$13from_residual17h398c71e29f804e3fE
[475](sec  1)(fl 0x00)(ty  20)(scl   2) (nx 0) 0x00000000000090a0 _ZN4core3str21_$LT$impl$u20$str$GT$3len17h027d9173c4ca300bE
[476](sec  1)(fl 0x00)(ty  20)(scl   2) (nx 0) 0x0000000000009110 _ZN4core3str21_$LT$impl$u20$str$GT$16is_char_boundary17h11734e10eadf63dbE
[477](sec  1)(fl 0x00)(ty  20)(scl   2) (nx 0) 0x0000000000011900 _ZN4core3str6traits66_$LT$impl$u20$core..ops..index..Index$LT$I$GT$$u20$for$u20$str$GT$5index17h1281e0b296475f51E
[478](sec  1)(fl 0x00)(ty   0)(scl   3) (nx 0) 0x00000000000030f4 .text
[479](sec  3)(fl 0x00)(ty   0)(scl   3) (nx 0) 0x0000000000000000 .data
[480](sec  3)(fl 0x00)(ty   0)(scl   3) (nx 0) 0x0000000000000008 .bss
[481](sec  1)(fl 0x00)(ty   0)(scl   3) (nx 0) 0x0000000000003100 .text
[482](sec  1)(fl 0x00)(ty  20)(scl   2) (nx 0) 0x0000000000003100 _ZN4core4iter8adapters9enumerate18Enumerate$LT$I$GT$3new17h786d485cb5e1fd00E
[483](sec  1)(fl 0x00)(ty   0)(scl   3) (nx 0) 0x0000000000003130 .text
[484](sec  1)(fl 0x00)(ty  20)(scl   2) (nx 0) 0x0000000000003130 _ZN4core4iter8adapters9enumerate18Enumerate$LT$I$GT$3new17hf01c126ec98cd28dE
[485](sec  1)(fl 0x00)(ty   0)(scl   3) (nx 0) 0x0000000000003160 .text
[486](sec  1)(fl 0x00)(ty  20)(scl   2) (nx 0) 0x0000000000003160 _ZN110_$LT$core..iter..adapters..enumerate..Enumerate$LT$I$GT$$u20$as$u20$core..iter..traits..iterator..Iterator$GT$4next17he0894c886186b902E
[487](sec  1)(fl 0x00)(ty   0)(scl   3) (nx 0) 0x0000000000003260 .text
[488](sec  1)(fl 0x00)(ty  20)(scl   2) (nx 0) 0x0000000000003260 _ZN110_$LT$core..iter..adapters..enumerate..Enumerate$LT$I$GT$$u20$as$u20$core..iter..traits..iterator..Iterator$GT$4next17heeb68f4413706525E
[489](sec  1)(fl 0x00)(ty   0)(scl   3) (nx 0) 0x0000000000003360 .text
[490](sec  1)(fl 0x00)(ty  20)(scl   2) (nx 0) 0x0000000000003360 _ZN63_$LT$I$u20$as$u20$core..iter..traits..collect..IntoIterator$GT$9into_iter17h3e54d5b89e1afe32E
[491](sec  1)(fl 0x00)(ty   0)(scl   3) (nx 0) 0x0000000000003380 .text
[492](sec  1)(fl 0x00)(ty  20)(scl   2) (nx 0) 0x0000000000003380 _ZN63_$LT$I$u20$as$u20$core..iter..traits..collect..IntoIterator$GT$9into_iter17h57e96a691f305665E
[493](sec  1)(fl 0x00)(ty   0)(scl   3) (nx 0) 0x00000000000033a0 .text
[494](sec  1)(fl 0x00)(ty   0)(scl   3) (nx 0) 0x0000000000003400 .text
[495](sec  1)(fl 0x00)(ty   0)(scl   3) (nx 0) 0x0000000000003500 .text
[496](sec  1)(fl 0x00)(ty   0)(scl   3) (nx 0) 0x0000000000003540 .text
[497](sec  1)(fl 0x00)(ty  20)(scl   3) (nx 0) 0x0000000000003540 _ZN4core7unicode9printable5check17hf549f4a34aade5ddE
[498](sec  1)(fl 0x00)(ty   0)(scl   3) (nx 0) 0x00000000000039a0 .text
[499](sec  1)(fl 0x00)(ty  20)(scl   2) (nx 0) 0x00000000000039a0 _ZN4core7unicode9printable12is_printable17h3fc8c5bf02538d7eE
[500](sec  2)(fl 0x00)(ty   0)(scl   3) (nx 0) 0x0000000000000b60 .rdata
[501](sec  2)(fl 0x00)(ty   0)(scl   3) (nx 0) 0x0000000000000b60 __unnamed_51
[502](sec  2)(fl 0x00)(ty   0)(scl   3) (nx 0) 0x0000000000000be8 .rdata
[503](sec  2)(fl 0x00)(ty   0)(scl   3) (nx 0) 0x0000000000000be8 __unnamed_1
[504](sec  2)(fl 0x00)(ty   0)(scl   3) (nx 0) 0x0000000000000c00 .rdata
[505](sec  2)(fl 0x00)(ty   0)(scl   3) (nx 0) 0x0000000000000c00 str.0
[506](sec  2)(fl 0x00)(ty   0)(scl   3) (nx 0) 0x0000000000000c20 .rdata
[507](sec  2)(fl 0x00)(ty   0)(scl   3) (nx 0) 0x0000000000000c20 __unnamed_12
[508](sec  2)(fl 0x00)(ty   0)(scl   3) (nx 0) 0x0000000000000c20 .rdata
[509](sec  2)(fl 0x00)(ty   0)(scl   3) (nx 0) 0x0000000000000c20 __unnamed_53
[510](sec  2)(fl 0x00)(ty   0)(scl   3) (nx 0) 0x0000000000000c40 .rdata
[511](sec  2)(fl 0x00)(ty   0)(scl   3) (nx 0) 0x0000000000000c40 __unnamed_54
[512](sec  2)(fl 0x00)(ty   0)(scl   3) (nx 0) 0x0000000000000c58 .rdata
[513](sec  2)(fl 0x00)(ty   0)(scl   3) (nx 0) 0x0000000000000c58 __unnamed_14
[514](sec  2)(fl 0x00)(ty   0)(scl   3) (nx 0) 0x0000000000000c78 .rdata
[515](sec  2)(fl 0x00)(ty   0)(scl   3) (nx 0) 0x0000000000000c78 __unnamed_61
[516](sec  2)(fl 0x00)(ty   0)(scl   3) (nx 0) 0x0000000000000cf8 .rdata
[517](sec  2)(fl 0x00)(ty   0)(scl   3) (nx 0) 0x0000000000000cf8 __unnamed_27
[518](sec  2)(fl 0x00)(ty   0)(scl   3) (nx 0) 0x0000000000000d10 .rdata
[519](sec  2)(fl 0x00)(ty   0)(scl   3) (nx 0) 0x0000000000000d10 __unnamed_28
[520](sec  2)(fl 0x00)(ty   0)(scl   3) (nx 0) 0x0000000000000d28 .rdata
[521](sec  2)(fl 0x00)(ty   0)(scl   3) (nx 0) 0x0000000000000d28 __unnamed_29
[522](sec  2)(fl 0x00)(ty   0)(scl   3) (nx 0) 0x0000000000000d40 .rdata
[523](sec  2)(fl 0x00)(ty   0)(scl   3) (nx 0) 0x0000000000000d40 __unnamed_30
[524](sec  2)(fl 0x00)(ty   0)(scl   3) (nx 0) 0x0000000000000d60 .rdata
[525](sec  2)(fl 0x00)(ty   0)(scl   3) (nx 0) 0x0000000000000d60 str.1
[526](sec  2)(fl 0x00)(ty   0)(scl   3) (nx 0) 0x0000000000000d81 .rdata
[527](sec  2)(fl 0x00)(ty   0)(scl   3) (nx 0) 0x0000000000000d81 __unnamed_62
[528](sec  2)(fl 0x00)(ty   0)(scl   3) (nx 0) 0x0000000000000dd8 .rdata
[529](sec  2)(fl 0x00)(ty   0)(scl   3) (nx 0) 0x0000000000000dd8 __unnamed_31
[530](sec  2)(fl 0x00)(ty   0)(scl   3) (nx 0) 0x0000000000000de8 .rdata
[531](sec  2)(fl 0x00)(ty   0)(scl   3) (nx 0) 0x0000000000000de8 __unnamed_32
[532](sec  2)(fl 0x00)(ty   0)(scl   3) (nx 0) 0x0000000000000f08 .rdata
[533](sec  2)(fl 0x00)(ty   0)(scl   3) (nx 0) 0x0000000000000f08 __unnamed_33
[534](sec  2)(fl 0x00)(ty   0)(scl   3) (nx 0) 0x0000000000001037 .rdata
[535](sec  2)(fl 0x00)(ty   0)(scl   3) (nx 0) 0x0000000000001037 __unnamed_63
[536](sec  2)(fl 0x00)(ty   0)(scl   3) (nx 0) 0x0000000000001090 .rdata
[537](sec  2)(fl 0x00)(ty   0)(scl   3) (nx 0) 0x0000000000001090 __unnamed_34
[538](sec  2)(fl 0x00)(ty   0)(scl   3) (nx 0) 0x00000000000010a0 .rdata
[539](sec  2)(fl 0x00)(ty   0)(scl   3) (nx 0) 0x00000000000010a0 __unnamed_35
[540](sec  2)(fl 0x00)(ty   0)(scl   3) (nx 0) 0x0000000000001160 .rdata
[541](sec  2)(fl 0x00)(ty   0)(scl   3) (nx 0) 0x0000000000001160 __unnamed_36
[542](sec  1)(fl 0x00)(ty  20)(scl   2) (nx 0) 0x0000000000011a70 _ZN91_$LT$core..slice..iter..Iter$LT$T$GT$$u20$as$u20$core..iter..traits..iterator..Iterator$GT$4next17h9db712505f81d27aE
[543](sec  1)(fl 0x00)(ty  20)(scl   2) (nx 0) 0x000000000000cd90 _ZN75_$LT$core..option..Option$LT$T$GT$$u20$as$u20$core..ops..try_trait..Try$GT$6branch17h1067ca1947a15068E
[544](sec  1)(fl 0x00)(ty  20)(scl   2) (nx 0) 0x000000000000cef0 _ZN84_$LT$core..option..Option$LT$T$GT$$u20$as$u20$core..ops..try_trait..FromResidual$GT$13from_residual17h0414e6e4b1e49008E
[545](sec  1)(fl 0x00)(ty  20)(scl   2) (nx 0) 0x0000000000011950 _ZN91_$LT$core..slice..iter..Iter$LT$T$GT$$u20$as$u20$core..iter..traits..iterator..Iterator$GT$4next17h01441a981dc12595E
[546](sec  1)(fl 0x00)(ty  20)(scl   2) (nx 0) 0x000000000000ce70 _ZN75_$LT$core..option..Option$LT$T$GT$$u20$as$u20$core..ops..try_trait..Try$GT$6branch17hcaab266a07412d83E
[547](sec  1)(fl 0x00)(ty  20)(scl   2) (nx 0) 0x000000000000cf60 _ZN84_$LT$core..option..Option$LT$T$GT$$u20$as$u20$core..ops..try_trait..FromResidual$GT$13from_residual17he0d70945c5a5d5b3E
[548](sec  1)(fl 0x00)(ty  20)(scl   2) (nx 0) 0x0000000000009b30 _ZN63_$LT$I$u20$as$u20$core..iter..traits..collect..IntoIterator$GT$9into_iter17h87663ad37b6263b5E
[549](sec  1)(fl 0x00)(ty  20)(scl   2) (nx 0) 0x0000000000011330 _ZN4core5slice4iter87_$LT$impl$u20$core..iter..traits..collect..IntoIterator$u20$for$u20$$RF$$u5b$T$u5d$$GT$9into_iter17hfadc91a74b64aa9aE
[550](sec  1)(fl 0x00)(ty  20)(scl   2) (nx 0) 0x00000000000070a0 _ZN44_$LT$$RF$T$u20$as$u20$core..fmt..Display$GT$3fmt17hefe135a5102a992aE
[551](sec  1)(fl 0x00)(ty  20)(scl   2) (nx 0) 0x0000000000004d60 _ZN4core3fmt10ArgumentV13new17hb3af0d9966c3c006E
[552](sec  1)(fl 0x00)(ty  20)(scl   2) (nx 0) 0x0000000000010250 _ZN4core3fmt3num3imp54_$LT$impl$u20$core..fmt..Display$u20$for$u20$usize$GT$3fmt17h66ff18aec41a5ccdE
[553](sec  1)(fl 0x00)(ty  20)(scl   2) (nx 0) 0x0000000000004d00 _ZN4core3fmt10ArgumentV13new17h93f163547395d02dE
[554](sec  1)(fl 0x00)(ty  20)(scl   2) (nx 0) 0x00000000000044c0 _ZN4core5panic8location8Location6caller17h848738f1ddeeca66E
[555](sec  1)(fl 0x00)(ty  20)(scl   2) (nx 0) 0x0000000000003c40 _ZN4core4hint21unreachable_unchecked17h5ded73cc6b81486eE
[556](sec  1)(fl 0x00)(ty  20)(scl   2) (nx 0) 0x0000000000006cb0 _ZN42_$LT$str$u20$as$u20$core..fmt..Display$GT$3fmt17h516a73fa367806b2E
[557](sec  1)(fl 0x00)(ty  20)(scl   2) (nx 0) 0x0000000000007010 _ZN42_$LT$$RF$T$u20$as$u20$core..fmt..Debug$GT$3fmt17h6bfbd1b0aaaa6b09E
[558](sec  1)(fl 0x00)(ty  20)(scl   2) (nx 0) 0x0000000000004ca0 _ZN4core3fmt10ArgumentV13new17h4e41e2228738a4e6E
[559](sec  1)(fl 0x00)(ty  20)(scl   2) (nx 0) 0x0000000000005050 _ZN59_$LT$core..fmt..Arguments$u20$as$u20$core..fmt..Display$GT$3fmt17h9989780cb55b65bcE
[560](sec  1)(fl 0x00)(ty  20)(scl   2) (nx 0) 0x0000000000006c80 _ZN57_$LT$core..fmt..Formatter$u20$as$u20$core..fmt..Write$GT$10write_char17ha7df7c6971ad5589E
[561](sec  1)(fl 0x00)(ty  20)(scl   2) (nx 0) 0x0000000000011300 _ZN4core5slice4iter87_$LT$impl$u20$core..iter..traits..collect..IntoIterator$u20$for$u20$$RF$$u5b$T$u5d$$GT$9into_iter17hd58edecbdbc2a5e0E
[562](sec  1)(fl 0x00)(ty  20)(scl   2) (nx 0) 0x0000000000011cb0 _ZN91_$LT$core..slice..iter..Iter$LT$T$GT$$u20$as$u20$core..iter..traits..iterator..Iterator$GT$4next17hf434ba37305fe3adE
[563](sec  1)(fl 0x00)(ty  20)(scl   2) (nx 0) 0x00000000000107f0 _ZN4core5slice5index74_$LT$impl$u20$core..ops..index..Index$LT$I$GT$$u20$for$u20$$u5b$T$u5d$$GT$5index17h40d9f16d5198ec67E
[564](sec  1)(fl 0x00)(ty  20)(scl   2) (nx 0) 0x00000000000111e0 _ZN4core4iter6traits8iterator8Iterator6cloned17h16989f75487fa77cE
[565](sec  1)(fl 0x00)(ty  20)(scl   2) (nx 0) 0x0000000000010fb0 _ZN104_$LT$core..iter..adapters..cloned..Cloned$LT$I$GT$$u20$as$u20$core..iter..traits..iterator..Iterator$GT$4next17h72da2c1ee42cb82fE
[566](sec  1)(fl 0x00)(ty  20)(scl   2) (nx 0) 0x000000000000c7a0 _ZN4core6option15Option$LT$T$GT$6unwrap17hca128ee8b27a6094E
[567](sec  1)(fl 0x00)(ty   0)(scl   3) (nx 0) 0x0000000000003c3c .text
[568](sec  3)(fl 0x00)(ty   0)(scl   3) (nx 0) 0x0000000000000000 .data
[569](sec  3)(fl 0x00)(ty   0)(scl   3) (nx 0) 0x0000000000000008 .bss
[570](sec  1)(fl 0x00)(ty   0)(scl   3) (nx 0) 0x0000000000003c40 .text
[571](sec  1)(fl 0x00)(ty   0)(scl   3) (nx 0) 0x0000000000003c50 .text
[572](sec  1)(fl 0x00)(ty  20)(scl   2) (nx 0) 0x0000000000003c50 _ZN4core3ptr9const_ptr33_$LT$impl$u20$$BP$const$u20$T$GT$7is_null17h99f1cf5a4c6f3ea5E
[573](sec  1)(fl 0x00)(ty   0)(scl   3) (nx 0) 0x0000000000003c80 .text
[574](sec  1)(fl 0x00)(ty  20)(scl   2) (nx 0) 0x0000000000003c80 _ZN4core3ptr9const_ptr43_$LT$impl$u20$$BP$const$u20$$u5b$T$u5d$$GT$6as_ptr17h47bdb61ea00d52f0E
[575](sec  1)(fl 0x00)(ty   0)(scl   3) (nx 0) 0x0000000000003ca0 .text
[576](sec  1)(fl 0x00)(ty  20)(scl   2) (nx 0) 0x0000000000003ca0 _ZN4core3ptr7mut_ptr31_$LT$impl$u20$$BP$mut$u20$T$GT$7is_null17h830045bd83c3e593E
[577](sec  1)(fl 0x00)(ty   0)(scl   3) (nx 0) 0x0000000000003cd0 .text
[578](sec  1)(fl 0x00)(ty  20)(scl   2) (nx 0) 0x0000000000003cd0 _ZN4core3ptr20slice_from_raw_parts17h518edea7f6d491adE
[579](sec  1)(fl 0x00)(ty   0)(scl   3) (nx 0) 0x0000000000003d20 .text
[580](sec  1)(fl 0x00)(ty  20)(scl   2) (nx 0) 0x0000000000003d20 _ZN4core3ptr20slice_from_raw_parts17h928f2df94d43db50E
[581](sec  1)(fl 0x00)(ty   0)(scl   3) (nx 0) 0x0000000000003d70 .text
[582](sec  1)(fl 0x00)(ty  20)(scl   2) (nx 0) 0x0000000000003d70 _ZN4core3ptr24slice_from_raw_parts_mut17h0a54b1b5410a6784E
[583](sec  1)(fl 0x00)(ty   0)(scl   3) (nx 0) 0x0000000000003dc0 .text
[584](sec  1)(fl 0x00)(ty  20)(scl   2) (nx 0) 0x0000000000003dc0 _ZN4core3ptr4read17h206aec3db5bc7d93E
[585](sec  1)(fl 0x00)(ty   0)(scl   3) (nx 0) 0x0000000000003e10 .text
[586](sec  1)(fl 0x00)(ty  20)(scl   2) (nx 0) 0x0000000000003e10 _ZN4core3ptr4read17hc8f2bd9216b44ea8E
[587](sec  1)(fl 0x00)(ty   0)(scl   3) (nx 0) 0x0000000000003e60 .text
[588](sec  1)(fl 0x00)(ty  20)(scl   2) (nx 0) 0x0000000000003e60 _ZN4core3ptr4read17hd5f718c6d0e345ceE
[589](sec  1)(fl 0x00)(ty   0)(scl   3) (nx 0) 0x0000000000003eb0 .text
[590](sec  1)(fl 0x00)(ty  20)(scl   2) (nx 0) 0x0000000000003eb0 _ZN4core3ptr5write17h5ba0d2f60eb435ddE
[591](sec  1)(fl 0x00)(ty   0)(scl   3) (nx 0) 0x0000000000003ed0 .text
[592](sec  1)(fl 0x00)(ty  20)(scl   2) (nx 0) 0x0000000000003ed0 _ZN4core3ptr5write17h70c30422bba337b2E
[593](sec  1)(fl 0x00)(ty   0)(scl   3) (nx 0) 0x0000000000003ef0 .text
[594](sec  1)(fl 0x00)(ty  20)(scl   2) (nx 0) 0x0000000000003ef0 _ZN4core3ptr5write17h962302919abd4392E
[595](sec  1)(fl 0x00)(ty   0)(scl   3) (nx 0) 0x0000000000003f10 .text
[596](sec  1)(fl 0x00)(ty  20)(scl   2) (nx 0) 0x0000000000003f10 _ZN4core3ptr13read_volatile17h7ceb3c0fe9ea4a31E
[597](sec  1)(fl 0x00)(ty   0)(scl   3) (nx 0) 0x0000000000003f60 .text
[598](sec  1)(fl 0x00)(ty  20)(scl   2) (nx 0) 0x0000000000003f60 _ZN4core3ptr12align_offset17h42bb914ac3d13c79E
[599](sec  1)(fl 0x00)(ty   0)(scl   3) (nx 0) 0x0000000000004240 .text
[600](sec  1)(fl 0x00)(ty  20)(scl   3) (nx 0) 0x0000000000004240 _ZN4core3ptr12align_offset7mod_inv17h3e963743fae4d4e1E
[601](sec  1)(fl 0x00)(ty   0)(scl   3) (nx 0) 0x0000000000004370 .text
[602](sec  1)(fl 0x00)(ty  20)(scl   2) (nx 0) 0x0000000000004370 _ZN50_$LT$T$u20$as$u20$core..convert..From$LT$T$GT$$GT$4from17h8e288125c4958d8bE
[603](sec  1)(fl 0x00)(ty   0)(scl   3) (nx 0) 0x0000000000004380 .text
[604](sec  1)(fl 0x00)(ty  20)(scl   2) (nx 0) 0x0000000000004380 _ZN31_$LT$dyn$u20$core..any..Any$GT$2is17h3af37a4060bb84b8E
[605](sec  1)(fl 0x00)(ty   0)(scl   3) (nx 0) 0x00000000000043e0 .text
[606](sec  1)(fl 0x00)(ty  20)(scl   2) (nx 0) 0x00000000000043e0 _ZN31_$LT$dyn$u20$core..any..Any$GT$12downcast_ref17h419c970e57401b18E
[607](sec  1)(fl 0x00)(ty   0)(scl   3) (nx 0) 0x0000000000004430 .text
[608](sec  1)(fl 0x00)(ty   0)(scl   3) (nx 0) 0x0000000000004460 .text
[609](sec  1)(fl 0x00)(ty  20)(scl   2) (nx 0) 0x0000000000004460 _ZN4core3any6TypeId2of17h9d23d38f14b5e00dE
[610](sec  1)(fl 0x00)(ty   0)(scl   3) (nx 0) 0x0000000000004490 .text
[611](sec  1)(fl 0x00)(ty   0)(scl   3) (nx 0) 0x00000000000044c0 .text
[612](sec  1)(fl 0x00)(ty   0)(scl   3) (nx 0) 0x00000000000044e0 .text
[613](sec  1)(fl 0x00)(ty   0)(scl   3) (nx 0) 0x0000000000004650 .text
[614](sec  1)(fl 0x00)(ty  20)(scl   2) (nx 0) 0x0000000000004650 _ZN4core6result19Result$LT$T$C$E$GT$2ok17h7b1b2da8d2c3ed93E
[615](sec  1)(fl 0x00)(ty   0)(scl   3) (nx 0) 0x0000000000004690 .text
[616](sec  1)(fl 0x00)(ty  20)(scl   2) (nx 0) 0x0000000000004690 _ZN4core6result19Result$LT$T$C$E$GT$2ok17h9aa8e6d7d5d461e9E
[617](sec  1)(fl 0x00)(ty   0)(scl   3) (nx 0) 0x00000000000046f0 .text
[618](sec  1)(fl 0x00)(ty  20)(scl   2) (nx 0) 0x00000000000046f0 _ZN4core6result19Result$LT$T$C$E$GT$8and_then17h09b59335aa6ec6a9E
[619](sec  1)(fl 0x00)(ty   0)(scl   3) (nx 0) 0x0000000000004760 .text
[620](sec  1)(fl 0x00)(ty  20)(scl   2) (nx 0) 0x0000000000004760 _ZN4core6result19Result$LT$T$C$E$GT$8and_then17h154e2700c220a5c4E
[621](sec  1)(fl 0x00)(ty   0)(scl   3) (nx 0) 0x00000000000047d0 .text
[622](sec  1)(fl 0x00)(ty  20)(scl   2) (nx 0) 0x00000000000047d0 _ZN4core6result13unwrap_failed17h823cfb5d139b417bE
[623](sec  1)(fl 0x00)(ty   0)(scl   3) (nx 0) 0x00000000000048e0 .text
[624](sec  1)(fl 0x00)(ty   0)(scl   3) (nx 0) 0x0000000000004920 .text
[625](sec  1)(fl 0x00)(ty  20)(scl   2) (nx 0) 0x0000000000004920 _ZN79_$LT$core..result..Result$LT$T$C$E$GT$$u20$as$u20$core..ops..try_trait..Try$GT$6branch17h4c6f8eb37db96d63E
[626](sec  1)(fl 0x00)(ty   0)(scl   3) (nx 0) 0x0000000000004980 .text
[627](sec  1)(fl 0x00)(ty  20)(scl   2) (nx 0) 0x0000000000004980 _ZN79_$LT$core..result..Result$LT$T$C$E$GT$$u20$as$u20$core..ops..try_trait..Try$GT$6branch17h9573032d19375e60E
[628](sec  1)(fl 0x00)(ty   0)(scl   3) (nx 0) 0x0000000000004a00 .text
[629](sec  1)(fl 0x00)(ty   0)(scl   3) (nx 0) 0x0000000000004a20 .text
[630](sec  1)(fl 0x00)(ty  20)(scl   2) (nx 0) 0x0000000000004a20 _ZN153_$LT$core..result..Result$LT$T$C$F$GT$$u20$as$u20$core..ops..try_trait..FromResidual$LT$core..result..Result$LT$core..convert..Infallible$C$E$GT$$GT$$GT$13from_residual17h543bed61664a5330E
[631](sec  1)(fl 0x00)(ty   0)(scl   3) (nx 0) 0x0000000000004a60 .text
[632](sec  1)(fl 0x00)(ty  20)(scl   2) (nx 0) 0x0000000000004a60 _ZN153_$LT$core..result..Result$LT$T$C$F$GT$$u20$as$u20$core..ops..try_trait..FromResidual$LT$core..result..Result$LT$core..convert..Infallible$C$E$GT$$GT$$GT$13from_residual17hcff5694d7dd6857cE
[633](sec  1)(fl 0x00)(ty   0)(scl   3) (nx 0) 0x0000000000004a80 .text
[634](sec  1)(fl 0x00)(ty  20)(scl   2) (nx 0) 0x0000000000004a80 _ZN4core3fmt9Formatter3new17h01955b6a4bc8fb5fE
[635](sec  1)(fl 0x00)(ty   0)(scl   3) (nx 0) 0x0000000000004af0 .text
[636](sec  1)(fl 0x00)(ty   0)(scl   3) (nx 0) 0x0000000000004b20 .text
[637](sec  1)(fl 0x00)(ty  20)(scl   2) (nx 0) 0x0000000000004b20 _ZN4core3fmt10ArgumentV13new17h31e2dffe75062c76E
[638](sec  1)(fl 0x00)(ty   0)(scl   3) (nx 0) 0x0000000000004b80 .text
[639](sec  1)(fl 0x00)(ty   0)(scl   3) (nx 0) 0x0000000000004be0 .text
[640](sec  1)(fl 0x00)(ty  20)(scl   2) (nx 0) 0x0000000000004be0 _ZN4core3fmt10ArgumentV13new17h3b77249674f0ac52E
[641](sec  1)(fl 0x00)(ty   0)(scl   3) (nx 0) 0x0000000000004c40 .text
[642](sec  1)(fl 0x00)(ty   0)(scl   3) (nx 0) 0x0000000000004ca0 .text
[643](sec  1)(fl 0x00)(ty   0)(scl   3) (nx 0) 0x0000000000004d00 .text
[644](sec  1)(fl 0x00)(ty   0)(scl   3) (nx 0) 0x0000000000004d60 .text
[645](sec  1)(fl 0x00)(ty   0)(scl   3) (nx 0) 0x0000000000004dc0 .text
[646](sec  1)(fl 0x00)(ty  20)(scl   2) (nx 0) 0x0000000000004dc0 _ZN4core3fmt10ArgumentV13new17hb430f1524b81b5d2E
[647](sec  1)(fl 0x00)(ty   0)(scl   3) (nx 0) 0x0000000000004e20 .text
[648](sec  1)(fl 0x00)(ty   0)(scl   3) (nx 0) 0x0000000000004e80 .text
[649](sec  1)(fl 0x00)(ty  20)(scl   2) (nx 0) 0x0000000000004e80 _ZN4core3fmt10ArgumentV13new17hcb39e992a9501bebE
[650](sec  1)(fl 0x00)(ty   0)(scl   3) (nx 0) 0x0000000000004ee0 .text
[651](sec  1)(fl 0x00)(ty  20)(scl   3) (nx 0) 0x0000000000004ee0 _ZN4core3fmt10ArgumentV18as_usize17h9de98e7a79d2607fE
[652](sec  1)(fl 0x00)(ty   0)(scl   3) (nx 0) 0x0000000000004f30 .text
[653](sec  1)(fl 0x00)(ty   0)(scl   3) (nx 0) 0x0000000000005050 .text
[654](sec  1)(fl 0x00)(ty   0)(scl   3) (nx 0) 0x00000000000050b0 .text
[655](sec  1)(fl 0x00)(ty   0)(scl   3) (nx 0) 0x0000000000005660 .text
[656](sec  1)(fl 0x00)(ty  20)(scl   3) (nx 0) 0x0000000000005660 _ZN4core3fmt3run17hcd9937e2bd924dbbE
[657](sec  1)(fl 0x00)(ty   0)(scl   3) (nx 0) 0x00000000000057b0 .text
[658](sec  1)(fl 0x00)(ty  20)(scl   3) (nx 0) 0x00000000000057b0 _ZN4core3fmt8getcount17h388ee5b1d7c26d6cE
[659](sec  1)(fl 0x00)(ty   0)(scl   3) (nx 0) 0x00000000000058b0 .text
[660](sec  1)(fl 0x00)(ty  20)(scl   3) (nx 0) 0x00000000000058b0 _ZN4core3fmt11PostPadding3new17hb75b715af97d9878E
[661](sec  1)(fl 0x00)(ty   0)(scl   3) (nx 0) 0x00000000000058e0 .text
[662](sec  1)(fl 0x00)(ty  20)(scl   2) (nx 0) 0x00000000000058e0 _ZN4core3fmt11PostPadding5write17hf47053e134b63a0fE
[663](sec  1)(fl 0x00)(ty   0)(scl   3) (nx 0) 0x00000000000059f0 .text
[664](sec  1)(fl 0x00)(ty  20)(scl   2) (nx 0) 0x00000000000059f0 _ZN4core3fmt9Formatter8wrap_buf17hf3377b893c59b83fE
[665](sec  1)(fl 0x00)(ty   0)(scl   3) (nx 0) 0x0000000000005ad0 .text
[666](sec  1)(fl 0x00)(ty  20)(scl   2) (nx 0) 0x0000000000005ad0 _ZN4core3fmt9Formatter12pad_integral17hf4158e5b14a78b42E
[667](sec  1)(fl 0x00)(ty   0)(scl   3) (nx 0) 0x0000000000006350 .text
[668](sec  1)(fl 0x00)(ty  20)(scl   3) (nx 0) 0x0000000000006350 _ZN4core3fmt9Formatter12pad_integral12write_prefix17h2404ff830657f925E
[669](sec  1)(fl 0x00)(ty   0)(scl   3) (nx 0) 0x0000000000006430 .text
[670](sec  1)(fl 0x00)(ty  20)(scl   2) (nx 0) 0x0000000000006430 _ZN4core3fmt9Formatter3pad17hc6454c49bf8898feE
[671](sec  1)(fl 0x00)(ty   0)(scl   3) (nx 0) 0x0000000000006890 .text
[672](sec  1)(fl 0x00)(ty  20)(scl   2) (nx 0) 0x0000000000006890 _ZN4core3fmt9Formatter7padding17h6b1910dc2922e6e3E
[673](sec  1)(fl 0x00)(ty   0)(scl   3) (nx 0) 0x0000000000006b10 .text
[674](sec  1)(fl 0x00)(ty   0)(scl   3) (nx 0) 0x0000000000006b50 .text
[675](sec  1)(fl 0x00)(ty   0)(scl   3) (nx 0) 0x0000000000006bb0 .text
[676](sec  1)(fl 0x00)(ty   0)(scl   3) (nx 0) 0x0000000000006bd0 .text
[677](sec  1)(fl 0x00)(ty   0)(scl   3) (nx 0) 0x0000000000006bf0 .text
[678](sec  1)(fl 0x00)(ty  20)(scl   2) (nx 0) 0x0000000000006bf0 _ZN4core3fmt9Formatter19sign_aware_zero_pad17hb1b1c13867cd6067E
[679](sec  1)(fl 0x00)(ty   0)(scl   3) (nx 0) 0x0000000000006c10 .text
[680](sec  1)(fl 0x00)(ty  20)(scl   2) (nx 0) 0x0000000000006c10 _ZN4core3fmt9Formatter15debug_lower_hex17h1e26a484e2df8831E
[681](sec  1)(fl 0x00)(ty   0)(scl   3) (nx 0) 0x0000000000006c30 .text
[682](sec  1)(fl 0x00)(ty  20)(scl   2) (nx 0) 0x0000000000006c30 _ZN4core3fmt9Formatter15debug_upper_hex17h7e54ffcd3b61ed11E
[683](sec  1)(fl 0x00)(ty   0)(scl   3) (nx 0) 0x0000000000006c50 .text
[684](sec  1)(fl 0x00)(ty   0)(scl   3) (nx 0) 0x0000000000006c80 .text
[685](sec  1)(fl 0x00)(ty   0)(scl   3) (nx 0) 0x0000000000006cb0 .text
[686](sec  1)(fl 0x00)(ty   0)(scl   3) (nx 0) 0x0000000000006cf0 .text
[687](sec  1)(fl 0x00)(ty  20)(scl   2) (nx 0) 0x0000000000006cf0 _ZN41_$LT$char$u20$as$u20$core..fmt..Debug$GT$3fmt17h985e2044c7c98d4aE
[688](sec  1)(fl 0x00)(ty   0)(scl   3) (nx 0) 0x0000000000006e80 .text
[689](sec  1)(fl 0x00)(ty  20)(scl   2) (nx 0) 0x0000000000006e80 _ZN4core5slice29_$LT$impl$u20$$u5b$T$u5d$$GT$13get_unchecked17hd29d258efd3d853aE
[690](sec  1)(fl 0x00)(ty   0)(scl   3) (nx 0) 0x0000000000006ec0 .text
[691](sec  1)(fl 0x00)(ty  20)(scl   2) (nx 0) 0x0000000000006ec0 _ZN4core5slice29_$LT$impl$u20$$u5b$T$u5d$$GT$6as_ptr17h6f3628de7f031aacE
[692](sec  1)(fl 0x00)(ty   0)(scl   3) (nx 0) 0x0000000000006ee0 .text
[693](sec  1)(fl 0x00)(ty  20)(scl   2) (nx 0) 0x0000000000006ee0 _ZN4core5slice29_$LT$impl$u20$$u5b$T$u5d$$GT$4iter17h65d7c1e79f1c8bc3E
[694](sec  1)(fl 0x00)(ty   0)(scl   3) (nx 0) 0x0000000000006f10 .text
[695](sec  1)(fl 0x00)(ty  20)(scl   2) (nx 0) 0x0000000000006f10 _ZN4core5clone5impls54_$LT$impl$u20$core..clone..Clone$u20$for$u20$usize$GT$5clone17hc06bcf3f277bef65E
[696](sec  1)(fl 0x00)(ty   0)(scl   3) (nx 0) 0x0000000000006f20 .text
[697](sec  1)(fl 0x00)(ty  20)(scl   2) (nx 0) 0x0000000000006f20 _ZN4core5clone5impls51_$LT$impl$u20$core..clone..Clone$u20$for$u20$u8$GT$5clone17h5a8d5674b4d20bbeE
[698](sec  1)(fl 0x00)(ty   0)(scl   3) (nx 0) 0x0000000000006f30 .text
[699](sec  1)(fl 0x00)(ty  20)(scl   3) (nx 0) 0x0000000000006f30 _ZN58_$LT$core..any..TypeId$u20$as$u20$core..cmp..PartialEq$GT$2eq17h2b7a72de08c6905eE
[700](sec  1)(fl 0x00)(ty   0)(scl   3) (nx 0) 0x0000000000006f60 .text
[701](sec  1)(fl 0x00)(ty  20)(scl   2) (nx 0) 0x0000000000006f60 _ZN56_$LT$usize$u20$as$u20$core..iter..traits..accum..Sum$GT$3sum17hecc229c8c3dc1183E
[702](sec  1)(fl 0x00)(ty   0)(scl   3) (nx 0) 0x0000000000006f90 .text
[703](sec  1)(fl 0x00)(ty  20)(scl   2) (nx 0) 0x0000000000006f90 _ZN56_$LT$usize$u20$as$u20$core..iter..traits..accum..Sum$GT$3sum28_$u7b$$u7b$closure$u7d$$u7d$17h59d9e20ad835f0a4E
[704](sec  1)(fl 0x00)(ty   0)(scl   3) (nx 0) 0x0000000000006fe0 .text
[705](sec  1)(fl 0x00)(ty   0)(scl   3) (nx 0) 0x0000000000007010 .text
[706](sec  1)(fl 0x00)(ty   0)(scl   3) (nx 0) 0x0000000000007040 .text
[707](sec  1)(fl 0x00)(ty   0)(scl   3) (nx 0) 0x0000000000007070 .text
[708](sec  1)(fl 0x00)(ty   0)(scl   3) (nx 0) 0x00000000000070a0 .text
[709](sec  2)(fl 0x00)(ty   0)(scl   3) (nx 0) 0x0000000000001320 .rdata
[710](sec  2)(fl 0x00)(ty   0)(scl   3) (nx 0) 0x0000000000001320 str.0
[711](sec  2)(fl 0x00)(ty   0)(scl   3) (nx 0) 0x0000000000001350 .rdata
[712](sec  2)(fl 0x00)(ty   0)(scl   3) (nx 0) 0x0000000000001350 str.1
[713](sec  2)(fl 0x00)(ty   0)(scl   3) (nx 0) 0x000000000000136c .rdata
[714](sec  2)(fl 0x00)(ty   0)(scl   3) (nx 0) 0x000000000000136c __unnamed_88
[715](sec  2)(fl 0x00)(ty   0)(scl   3) (nx 0) 0x00000000000013dd .rdata
[716](sec  2)(fl 0x00)(ty   0)(scl   3) (nx 0) 0x00000000000013dd __unnamed_9
[717](sec  2)(fl 0x00)(ty   0)(scl   3) (nx 0) 0x00000000000013e8 .rdata
[718](sec  2)(fl 0x00)(ty   0)(scl   3) (nx 0) 0x00000000000013e8 __unnamed_10
[719](sec  2)(fl 0x00)(ty   0)(scl   3) (nx 0) 0x0000000000001400 .rdata
[720](sec  2)(fl 0x00)(ty   0)(scl   3) (nx 0) 0x0000000000001400 __unnamed_19
[721](sec  2)(fl 0x00)(ty   0)(scl   3) (nx 0) 0x0000000000001400 .rdata
[722](sec  2)(fl 0x00)(ty   0)(scl   3) (nx 0) 0x0000000000001400 __unnamed_91
[723](sec  2)(fl 0x00)(ty   0)(scl   3) (nx 0) 0x0000000000001408 .rdata
[724](sec  2)(fl 0x00)(ty   0)(scl   3) (nx 0) 0x0000000000001408 __unnamed_12
[725](sec  2)(fl 0x00)(ty   0)(scl   3) (nx 0) 0x0000000000001438 .rdata
[726](sec  2)(fl 0x00)(ty   0)(scl   3) (nx 0) 0x0000000000001438 __unnamed_92
[727](sec  2)(fl 0x00)(ty   0)(scl   3) (nx 0) 0x0000000000001440 .rdata
[728](sec  2)(fl 0x00)(ty   0)(scl   3) (nx 0) 0x0000000000001440 __unnamed_15
[729](sec  2)(fl 0x00)(ty   0)(scl   3) (nx 0) 0x0000000000001460 .rdata
[730](sec  2)(fl 0x00)(ty   0)(scl   2) (nx 0) 0x0000000000001460 _ZN4core3fmt12USIZE_MARKER17h05493c709f02ce2dE
[731](sec  2)(fl 0x00)(ty   0)(scl   3) (nx 0) 0x0000000000001468 .rdata
[732](sec  2)(fl 0x00)(ty   0)(scl   3) (nx 0) 0x0000000000001468 __unnamed_93
[733](sec  2)(fl 0x00)(ty   0)(scl   3) (nx 0) 0x00000000000014e0 .rdata
[734](sec  2)(fl 0x00)(ty   0)(scl   3) (nx 0) 0x00000000000014e0 __unnamed_16
[735](sec  2)(fl 0x00)(ty   0)(scl   3) (nx 0) 0x00000000000014f8 .rdata
[736](sec  2)(fl 0x00)(ty   0)(scl   3) (nx 0) 0x00000000000014f8 __unnamed_17
[737](sec  2)(fl 0x00)(ty   0)(scl   3) (nx 0) 0x0000000000001508 .rdata
[738](sec  2)(fl 0x00)(ty   0)(scl   3) (nx 0) 0x0000000000001508 __unnamed_18
[739](sec  2)(fl 0x00)(ty   0)(scl   3) (nx 0) 0x0000000000001520 .rdata
[740](sec  2)(fl 0x00)(ty   0)(scl   3) (nx 0) 0x0000000000001520 __unnamed_20
[741](sec  2)(fl 0x00)(ty   0)(scl   3) (nx 0) 0x0000000000001538 .rdata
[742](sec  2)(fl 0x00)(ty   0)(scl   3) (nx 0) 0x0000000000001538 __unnamed_21
[743](sec  2)(fl 0x00)(ty   0)(scl   3) (nx 0) 0x0000000000001550 .rdata
[744](sec  2)(fl 0x00)(ty   0)(scl   3) (nx 0) 0x0000000000001550 __unnamed_22
[745](sec  2)(fl 0x00)(ty   0)(scl   3) (nx 0) 0x0000000000001580 .rdata
[746](sec  2)(fl 0x00)(ty   0)(scl   3) (nx 0) 0x0000000000001580 __unnamed_23
[747](sec  2)(fl 0x00)(ty   0)(scl   3) (nx 0) 0x0000000000001598 .rdata
[748](sec  2)(fl 0x00)(ty   0)(scl   3) (nx 0) 0x0000000000001598 __unnamed_24
[749](sec  2)(fl 0x00)(ty   0)(scl   3) (nx 0) 0x00000000000015b8 .rdata
[750](sec  2)(fl 0x00)(ty   0)(scl   3) (nx 0) 0x00000000000015b8 __unnamed_25
[751](sec  2)(fl 0x00)(ty   0)(scl   3) (nx 0) 0x00000000000015d0 .rdata
[752](sec  2)(fl 0x00)(ty   0)(scl   3) (nx 0) 0x00000000000015d0 __unnamed_26
[753](sec  2)(fl 0x00)(ty   0)(scl   3) (nx 0) 0x00000000000015e8 .rdata
[754](sec  2)(fl 0x00)(ty   0)(scl   3) (nx 0) 0x00000000000015e8 __unnamed_27
[755](sec  2)(fl 0x00)(ty   0)(scl   3) (nx 0) 0x0000000000001600 .rdata
[756](sec  2)(fl 0x00)(ty   0)(scl   3) (nx 0) 0x0000000000001600 __unnamed_28
[757](sec  2)(fl 0x00)(ty   0)(scl   3) (nx 0) 0x0000000000001618 .rdata
[758](sec  2)(fl 0x00)(ty   0)(scl   3) (nx 0) 0x0000000000001618 __unnamed_29
[759](sec  2)(fl 0x00)(ty   0)(scl   3) (nx 0) 0x0000000000001630 .rdata
[760](sec  2)(fl 0x00)(ty   0)(scl   3) (nx 0) 0x0000000000001630 __unnamed_30
[761](sec  2)(fl 0x00)(ty   0)(scl   3) (nx 0) 0x0000000000001648 .rdata
[762](sec  2)(fl 0x00)(ty   0)(scl   3) (nx 0) 0x0000000000001648 __unnamed_31
[763](sec  2)(fl 0x00)(ty   0)(scl   3) (nx 0) 0x0000000000001660 .rdata
[764](sec  2)(fl 0x00)(ty   0)(scl   3) (nx 0) 0x0000000000001660 __unnamed_32
[765](sec  2)(fl 0x00)(ty   0)(scl   3) (nx 0) 0x0000000000001678 .rdata
[766](sec  2)(fl 0x00)(ty   0)(scl   3) (nx 0) 0x0000000000001678 __unnamed_95
[767](sec  2)(fl 0x00)(ty   0)(scl   3) (nx 0) 0x00000000000016f8 .rdata
[768](sec  2)(fl 0x00)(ty   0)(scl   3) (nx 0) 0x00000000000016f8 __unnamed_61
[769](sec  1)(fl 0x00)(ty  20)(scl   2) (nx 0) 0x0000000000010350 _ZN4core3ptr8metadata14from_raw_parts17h3859b1b2582fb4c5E
[770](sec  1)(fl 0x00)(ty  20)(scl   2) (nx 0) 0x00000000000104a0 _ZN4core3ptr9const_ptr33_$LT$impl$u20$$BP$const$u20$T$GT$4cast17h25c9dd5dd794eceaE
[771](sec  1)(fl 0x00)(ty  20)(scl   2) (nx 0) 0x0000000000010390 _ZN4core3ptr8metadata14from_raw_parts17hf6f99d128a89d691E
[772](sec  1)(fl 0x00)(ty  20)(scl   2) (nx 0) 0x00000000000103d0 _ZN4core3ptr8metadata18from_raw_parts_mut17h6857871e208b9566E
[773](sec  1)(fl 0x00)(ty  20)(scl   2) (nx 0) 0x0000000000012a90 _ZN4core10intrinsics19copy_nonoverlapping17ha1f38f87df108d81E
[774](sec  1)(fl 0x00)(ty  20)(scl   2) (nx 0) 0x0000000000012990 _ZN4core10intrinsics23is_aligned_and_not_null17h011c92b4555ddf4dE
[775](sec  1)(fl 0x00)(ty  20)(scl   2) (nx 0) 0x00000000000101b0 _ZN4core3fmt3num3imp52_$LT$impl$u20$core..fmt..Display$u20$for$u20$u32$GT$3fmt17h4e3d6970377b854aE
[776](sec  1)(fl 0x00)(ty  20)(scl   2) (nx 0) 0x000000000000d3f0 _ZN4core3fmt8builders10DebugTuple5field28_$u7b$$u7b$closure$u7d$$u7d$17h3a5f88aa429b23beE
[777](sec  1)(fl 0x00)(ty  20)(scl   2) (nx 0) 0x000000000000d680 _ZN4core3fmt8builders10DebugTuple6finish28_$u7b$$u7b$closure$u7d$$u7d$17hd1412e82b9472ad9E
[778](sec  1)(fl 0x00)(ty  20)(scl   2) (nx 0) 0x00000000000110f0 _ZN4core4iter6traits8iterator8Iterator9enumerate17hba2e73b93c5115b1E
[779](sec  1)(fl 0x00)(ty  20)(scl   2) (nx 0) 0x0000000000009c20 _ZN4core5slice29_$LT$impl$u20$$u5b$T$u5d$$GT$3get17haf36604620cd48aeE
[780](sec  1)(fl 0x00)(ty  20)(scl   2) (nx 0) 0x0000000000009c60 _ZN4core5slice29_$LT$impl$u20$$u5b$T$u5d$$GT$13get_unchecked17h036c0e0aa49a2f4aE
[781](sec  1)(fl 0x00)(ty  20)(scl   2) (nx 0) 0x00000000000090e0 _ZN4core3str21_$LT$impl$u20$str$GT$8is_empty17h5a1f35654e20a1ffE
[782](sec  1)(fl 0x00)(ty  20)(scl   2) (nx 0) 0x00000000000110c0 _ZN4core4iter6traits8iterator8Iterator9enumerate17h46d5338b4cf518b1E
[783](sec  1)(fl 0x00)(ty  20)(scl   2) (nx 0) 0x000000000000e7a0 _ZN63_$LT$I$u20$as$u20$core..iter..traits..collect..IntoIterator$GT$9into_iter17he25f9d9fa5a13ef4E
[784](sec  1)(fl 0x00)(ty  20)(scl   2) (nx 0) 0x000000000000e770 _ZN4core4iter5range101_$LT$impl$u20$core..iter..traits..iterator..Iterator$u20$for$u20$core..ops..range..Range$LT$A$GT$$GT$4next17h6bd5d2f7bf219b8eE
[785](sec  1)(fl 0x00)(ty  20)(scl   2) (nx 0) 0x000000000000cfe0 _ZN4core3fmt8builders10PadAdapter4wrap28_$u7b$$u7b$closure$u7d$$u7d$17h0c70c65435bccbb1E
[786](sec  1)(fl 0x00)(ty  20)(scl   2) (nx 0) 0x0000000000009260 _ZN4core3str21_$LT$impl$u20$str$GT$5chars17hb015b5d57478f088E
[787](sec  1)(fl 0x00)(ty  20)(scl   2) (nx 0) 0x0000000000008440 _ZN81_$LT$core..str..iter..Chars$u20$as$u20$core..iter..traits..iterator..Iterator$GT$5count17h27d1609f88b011f9E
[788](sec  1)(fl 0x00)(ty  20)(scl   2) (nx 0) 0x0000000000007650 _ZN4core3mem7replace17h0b76dcd6efef696eE
[789](sec  1)(fl 0x00)(ty  20)(scl   2) (nx 0) 0x00000000000076d0 _ZN4core3mem7replace17hbc71d3f1dae5c80fE
[790](sec  1)(fl 0x00)(ty  20)(scl   2) (nx 0) 0x00000000000092e0 _ZN4core3str21_$LT$impl$u20$str$GT$12char_indices17h43f6d540464e109eE
[791](sec  1)(fl 0x00)(ty  20)(scl   2) (nx 0) 0x0000000000008300 _ZN4core4iter6traits8iterator8Iterator3nth17hae6e607240ee1358E
[792](sec  1)(fl 0x00)(ty  20)(scl   2) (nx 0) 0x0000000000009210 _ZN4core3str21_$LT$impl$u20$str$GT$3get17hab96c48511929580E
[793](sec  1)(fl 0x00)(ty  20)(scl   2) (nx 0) 0x000000000000c7f0 _ZN4core6option15Option$LT$T$GT$9unwrap_or17h053a16a61154dd0aE
[794](sec  1)(fl 0x00)(ty  20)(scl   2) (nx 0) 0x0000000000008390 _ZN4core3str8converts19from_utf8_unchecked17h963f3a0c6cfd5be4E
[795](sec  1)(fl 0x00)(ty  20)(scl   2) (nx 0) 0x000000000000d2b0 _ZN4core3fmt8builders15debug_tuple_new17h2ebdeb7b89bab5f8E
[796](sec  1)(fl 0x00)(ty  20)(scl   2) (nx 0) 0x00000000000084b0 _ZN87_$LT$core..str..iter..CharIndices$u20$as$u20$core..iter..traits..iterator..Iterator$GT$4next17hda632410039d0f58E
[797](sec  1)(fl 0x00)(ty  20)(scl   2) (nx 0) 0x00000000000118b0 _ZN4core3str6traits66_$LT$impl$u20$core..ops..index..Index$LT$I$GT$$u20$for$u20$str$GT$5index17h127afeaf86cd2e9fE
[798](sec  1)(fl 0x00)(ty  20)(scl   2) (nx 0) 0x00000000000078c0 _ZN4core4char7methods22_$LT$impl$u20$char$GT$16escape_debug_ext17hb20997ee9a342032E
[799](sec  1)(fl 0x00)(ty  20)(scl   2) (nx 0) 0x0000000000009b10 _ZN82_$LT$core..char..EscapeDebug$u20$as$u20$core..iter..traits..iterator..Iterator$GT$4next17h9570a31b0946ee2eE
[800](sec  1)(fl 0x00)(ty  20)(scl   2) (nx 0) 0x0000000000007b60 _ZN4core4char7methods22_$LT$impl$u20$char$GT$8len_utf817h20f6ead4dc3a4081E
[801](sec  1)(fl 0x00)(ty  20)(scl   2) (nx 0) 0x0000000000007b80 _ZN4core4char7methods22_$LT$impl$u20$char$GT$11encode_utf817h865f3b735eee9598E
[802](sec  1)(fl 0x00)(ty  20)(scl   2) (nx 0) 0x0000000000010e60 _ZN75_$LT$usize$u20$as$u20$core..slice..index..SliceIndex$LT$$u5b$T$u5d$$GT$$GT$13get_unchecked17hd6c31825202d5796E
[803](sec  1)(fl 0x00)(ty  20)(scl   2) (nx 0) 0x0000000000011690 _ZN4core5slice4iter13Iter$LT$T$GT$3new17hf1c7ffd1a0f0f516E
[804](sec  1)(fl 0x00)(ty  20)(scl   2) (nx 0) 0x0000000000012db0 _ZN102_$LT$core..iter..adapters..map..Map$LT$I$C$F$GT$$u20$as$u20$core..iter..traits..iterator..Iterator$GT$4fold17hac0e3cacaee506d5E
[805](sec  1)(fl 0x00)(ty  20)(scl   2) (nx 0) 0x000000000000c5c0 _ZN4core3fmt3num52_$LT$impl$u20$core..fmt..Debug$u20$for$u20$usize$GT$3fmt17hdec8b1806d513096E
[806](sec  1)(fl 0x00)(ty  20)(scl   2) (nx 0) 0x0000000000009460 _ZN4core7unicode12unicode_data13decode_length17hf58874e3f3acb262E
[807](sec  1)(fl 0x00)(ty  20)(scl   2) (nx 0) 0x0000000000009be0 _ZN4core5slice29_$LT$impl$u20$$u5b$T$u5d$$GT$3get17ha5ab1e2c46be2bd6E
[808](sec  1)(fl 0x00)(ty  20)(scl   2) (nx 0) 0x0000000000012e30 _ZN4core3num23_$LT$impl$u20$usize$GT$11checked_sub17hedb0a8149ac1f783E
[809](sec  1)(fl 0x00)(ty  20)(scl   2) (nx 0) 0x000000000000c890 _ZN4core6option15Option$LT$T$GT$9unwrap_or17h8baf6a0ab55e04ecE
[810](sec  1)(fl 0x00)(ty   0)(scl   3) (nx 0) 0x00000000000070d4 .text
[811](sec  3)(fl 0x00)(ty   0)(scl   3) (nx 0) 0x0000000000000000 .data
[812](sec  3)(fl 0x00)(ty   0)(scl   3) (nx 0) 0x0000000000000008 .bss
[813](sec  1)(fl 0x00)(ty   0)(scl   3) (nx 0) 0x00000000000070e0 .text
[814](sec  1)(fl 0x00)(ty  20)(scl   2) (nx 0) 0x00000000000070e0 _ZN4core4sync6atomic11atomic_load17h110a1f420142c805E
[815](sec  1)(fl 0x00)(ty   0)(scl   3) (nx 0) 0x0000000000007190 .text
[816](sec  1)(fl 0x00)(ty   0)(scl   3) (nx 0) 0x0000000000007210 .text
[817](sec  1)(fl 0x00)(ty   0)(scl   3) (nx 0) 0x0000000000007250 .text
[818](sec  1)(fl 0x00)(ty  20)(scl   2) (nx 0) 0x0000000000007250 _ZN4core4sync6atomic23atomic_compare_exchange17hc4b5115a650fb9ceE
[819](sec  2)(fl 0x00)(ty   0)(scl   3) (nx 0) 0x0000000000001710 .rdata
[820](sec  2)(fl 0x00)(ty   0)(scl   3) (nx 0) 0x0000000000001710 __unnamed_3
[821](sec  2)(fl 0x00)(ty   0)(scl   3) (nx 0) 0x0000000000001741 .rdata
[822](sec  2)(fl 0x00)(ty   0)(scl   3) (nx 0) 0x0000000000001741 __unnamed_11
[823](sec  2)(fl 0x00)(ty   0)(scl   3) (nx 0) 0x00000000000017b8 .rdata
[824](sec  2)(fl 0x00)(ty   0)(scl   3) (nx 0) 0x00000000000017b8 __unnamed_4
[825](sec  2)(fl 0x00)(ty   0)(scl   3) (nx 0) 0x00000000000017d0 .rdata
[826](sec  2)(fl 0x00)(ty   0)(scl   3) (nx 0) 0x00000000000017d0 __unnamed_1
[827](sec  2)(fl 0x00)(ty   0)(scl   3) (nx 0) 0x00000000000017f8 .rdata
[828](sec  2)(fl 0x00)(ty   0)(scl   3) (nx 0) 0x00000000000017f8 __unnamed_2
[829](sec  2)(fl 0x00)(ty   0)(scl   3) (nx 0) 0x0000000000001810 .rdata
[830](sec  2)(fl 0x00)(ty   0)(scl   3) (nx 0) 0x0000000000001810 __unnamed_5
[831](sec  2)(fl 0x00)(ty   0)(scl   3) (nx 0) 0x0000000000001850 .rdata
[832](sec  2)(fl 0x00)(ty   0)(scl   3) (nx 0) 0x0000000000001850 __unnamed_6
[833](sec  2)(fl 0x00)(ty   0)(scl   3) (nx 0) 0x0000000000001868 .rdata
[834](sec  2)(fl 0x00)(ty   0)(scl   3) (nx 0) 0x0000000000001868 __unnamed_9
[835](sec  2)(fl 0x00)(ty   0)(scl   3) (nx 0) 0x00000000000018a8 .rdata
[836](sec  2)(fl 0x00)(ty   0)(scl   3) (nx 0) 0x00000000000018a8 __unnamed_10
[837](sec  2)(fl 0x00)(ty   0)(scl   3) (nx 0) 0x00000000000018c0 .rdata
[838](sec  2)(fl 0x00)(ty   0)(scl   3) (nx 0) 0x00000000000018c0 __unnamed_7
[839](sec  2)(fl 0x00)(ty   0)(scl   3) (nx 0) 0x00000000000018f8 .rdata
[840](sec  2)(fl 0x00)(ty   0)(scl   3) (nx 0) 0x00000000000018f8 __unnamed_8
[841](sec  1)(fl 0x00)(ty   0)(scl   3) (nx 0) 0x0000000000007614 .text
[842](sec  3)(fl 0x00)(ty   0)(scl   3) (nx 0) 0x0000000000000000 .data
[843](sec  3)(fl 0x00)(ty   0)(scl   3) (nx 0) 0x0000000000000008 .bss
[844](sec  1)(fl 0x00)(ty   0)(scl   3) (nx 0) 0x0000000000007620 .text
[845](sec  1)(fl 0x00)(ty  20)(scl   2) (nx 0) 0x0000000000007620 _ZN4core3mem11size_of_val17hd59a1751a043c4cfE
[846](sec  1)(fl 0x00)(ty   0)(scl   3) (nx 0) 0x0000000000007650 .text
[847](sec  1)(fl 0x00)(ty   0)(scl   3) (nx 0) 0x0000000000007690 .text
[848](sec  1)(fl 0x00)(ty  20)(scl   2) (nx 0) 0x0000000000007690 _ZN4core3mem7replace17h22a41f89adfc6ddaE
[849](sec  1)(fl 0x00)(ty   0)(scl   3) (nx 0) 0x00000000000076d0 .text
[850](sec  1)(fl 0x00)(ty   0)(scl   3) (nx 0) 0x0000000000007710 .text
[851](sec  1)(fl 0x00)(ty  20)(scl   2) (nx 0) 0x0000000000007710 _ZN4core3ptr8non_null16NonNull$LT$T$GT$13new_unchecked17h01aff83cbcc04ac6E
[852](sec  1)(fl 0x00)(ty   0)(scl   3) (nx 0) 0x0000000000007730 .text
[853](sec  1)(fl 0x00)(ty  20)(scl   2) (nx 0) 0x0000000000007730 _ZN4core3ptr8non_null16NonNull$LT$T$GT$13new_unchecked17h4bc564495d514eeeE
[854](sec  1)(fl 0x00)(ty   0)(scl   3) (nx 0) 0x0000000000007750 .text
[855](sec  1)(fl 0x00)(ty  20)(scl   2) (nx 0) 0x0000000000007750 _ZN4core3ptr8non_null16NonNull$LT$T$GT$13new_unchecked17h7d8249ad13867190E
[856](sec  1)(fl 0x00)(ty   0)(scl   3) (nx 0) 0x0000000000007770 .text
[857](sec  1)(fl 0x00)(ty  20)(scl   2) (nx 0) 0x0000000000007770 _ZN4core3ptr8non_null16NonNull$LT$T$GT$13new_unchecked17h8864b042a96313ecE
[858](sec  1)(fl 0x00)(ty   0)(scl   3) (nx 0) 0x0000000000007790 .text
[859](sec  1)(fl 0x00)(ty  20)(scl   2) (nx 0) 0x0000000000007790 _ZN4core3ptr8non_null16NonNull$LT$T$GT$13new_unchecked17h9dc2a1abf0a701a7E
[860](sec  1)(fl 0x00)(ty   0)(scl   3) (nx 0) 0x00000000000077b0 .text
[861](sec  1)(fl 0x00)(ty  20)(scl   2) (nx 0) 0x00000000000077b0 _ZN4core3ptr8non_null16NonNull$LT$T$GT$6as_ptr17h23bf58bbc128463cE
[862](sec  1)(fl 0x00)(ty   0)(scl   3) (nx 0) 0x00000000000077c0 .text
[863](sec  1)(fl 0x00)(ty  20)(scl   2) (nx 0) 0x00000000000077c0 _ZN4core3ptr8non_null16NonNull$LT$T$GT$6as_ptr17h90e181b73893e61fE
[864](sec  1)(fl 0x00)(ty   0)(scl   3) (nx 0) 0x00000000000077d0 .text
[865](sec  1)(fl 0x00)(ty  20)(scl   2) (nx 0) 0x00000000000077d0 _ZN4core3ptr8non_null16NonNull$LT$T$GT$6as_ptr17h9d8e5c035bf7fb87E
[866](sec  1)(fl 0x00)(ty   0)(scl   3) (nx 0) 0x00000000000077e0 .text
[867](sec  1)(fl 0x00)(ty  20)(scl   2) (nx 0) 0x00000000000077e0 _ZN4core3ptr8non_null16NonNull$LT$T$GT$6as_ptr17ha1cf6054abb89bd6E
[868](sec  1)(fl 0x00)(ty   0)(scl   3) (nx 0) 0x00000000000077f0 .text
[869](sec  1)(fl 0x00)(ty  20)(scl   2) (nx 0) 0x00000000000077f0 _ZN4core3ptr8non_null16NonNull$LT$T$GT$6as_ptr17heff42aa28591bbc0E
[870](sec  1)(fl 0x00)(ty   0)(scl   3) (nx 0) 0x0000000000007800 .text
[871](sec  1)(fl 0x00)(ty  20)(scl   2) (nx 0) 0x0000000000007800 _ZN4core4char7methods22_$LT$impl$u20$char$GT$8from_u3217haa739b0786258ec6E
[872](sec  1)(fl 0x00)(ty   0)(scl   3) (nx 0) 0x0000000000007820 .text
[873](sec  1)(fl 0x00)(ty  20)(scl   3) (nx 0) 0x0000000000007820 _ZN4core4char7methods22_$LT$impl$u20$char$GT$14escape_unicode17h8047efbf631a7db3E
[874](sec  1)(fl 0x00)(ty   0)(scl   3) (nx 0) 0x00000000000078c0 .text
[875](sec  1)(fl 0x00)(ty   0)(scl   3) (nx 0) 0x0000000000007b60 .text
[876](sec  1)(fl 0x00)(ty   0)(scl   3) (nx 0) 0x0000000000007b80 .text
[877](sec  1)(fl 0x00)(ty   0)(scl   3) (nx 0) 0x0000000000007bd0 .text
[878](sec  1)(fl 0x00)(ty  20)(scl   3) (nx 0) 0x0000000000007bd0 _ZN4core4char7methods22_$LT$impl$u20$char$GT$20is_grapheme_extended17h67a51c99a24dae4fE
[879](sec  1)(fl 0x00)(ty   0)(scl   3) (nx 0) 0x0000000000007bf0 .text
[880](sec  1)(fl 0x00)(ty  20)(scl   3) (nx 0) 0x0000000000007bf0 _ZN4core4char7methods8len_utf817h70d9d1c84df5be0cE
[881](sec  1)(fl 0x00)(ty   0)(scl   3) (nx 0) 0x0000000000007c60 .text
[882](sec  1)(fl 0x00)(ty  20)(scl   3) (nx 0) 0x0000000000007c60 _ZN4core4char7methods15encode_utf8_raw17h361c192d3cf5d3c7E
[883](sec  1)(fl 0x00)(ty   0)(scl   3) (nx 0) 0x0000000000008190 .text
[884](sec  1)(fl 0x00)(ty  20)(scl   2) (nx 0) 0x0000000000008190 _ZN4core4iter6traits8iterator8Iterator10advance_by17h69a0f6d0647cb105E
[885](sec  1)(fl 0x00)(ty   0)(scl   3) (nx 0) 0x0000000000008300 .text
[886](sec  1)(fl 0x00)(ty   0)(scl   3) (nx 0) 0x0000000000008390 .text
[887](sec  1)(fl 0x00)(ty   0)(scl   3) (nx 0) 0x00000000000083d0 .text
[888](sec  1)(fl 0x00)(ty  20)(scl   3) (nx 0) 0x00000000000083d0 _ZN4core3str8converts23from_utf8_unchecked_mut17hbc077af99c558e49E
[889](sec  1)(fl 0x00)(ty   0)(scl   3) (nx 0) 0x00000000000083f0 .text
[890](sec  1)(fl 0x00)(ty  20)(scl   2) (nx 0) 0x00000000000083f0 _ZN81_$LT$core..str..iter..Chars$u20$as$u20$core..iter..traits..iterator..Iterator$GT$4next17hcf1ccf9ec5375e07E
[891](sec  1)(fl 0x00)(ty   0)(scl   3) (nx 0) 0x0000000000008420 .text
[892](sec  1)(fl 0x00)(ty  20)(scl   2) (nx 0) 0x0000000000008420 _ZN81_$LT$core..str..iter..Chars$u20$as$u20$core..iter..traits..iterator..Iterator$GT$4next28_$u7b$$u7b$closure$u7d$$u7d$17hedd43d3c3cc21470E
[893](sec  1)(fl 0x00)(ty   0)(scl   3) (nx 0) 0x0000000000008440 .text
[894](sec  1)(fl 0x00)(ty   0)(scl   3) (nx 0) 0x0000000000008480 .text
[895](sec  1)(fl 0x00)(ty  20)(scl   2) (nx 0) 0x0000000000008480 _ZN81_$LT$core..str..iter..Chars$u20$as$u20$core..iter..traits..iterator..Iterator$GT$5count28_$u7b$$u7b$closure$u7d$$u7d$17h1743a0b8e890a576E
[896](sec  1)(fl 0x00)(ty   0)(scl   3) (nx 0) 0x00000000000084b0 .text
[897](sec  1)(fl 0x00)(ty   0)(scl   3) (nx 0) 0x0000000000008710 .text
[898](sec  1)(fl 0x00)(ty  20)(scl   2) (nx 0) 0x0000000000008710 _ZN4core3str16slice_error_fail17hae8b0f08a147942fE
[899](sec  1)(fl 0x00)(ty   0)(scl   3) (nx 0) 0x00000000000090a0 .text
[900](sec  1)(fl 0x00)(ty   0)(scl   3) (nx 0) 0x00000000000090e0 .text
[901](sec  1)(fl 0x00)(ty   0)(scl   3) (nx 0) 0x0000000000009110 .text
[902](sec  1)(fl 0x00)(ty   0)(scl   3) (nx 0) 0x0000000000009210 .text
[903](sec  1)(fl 0x00)(ty   0)(scl   3) (nx 0) 0x0000000000009260 .text
[904](sec  1)(fl 0x00)(ty   0)(scl   3) (nx 0) 0x00000000000092e0 .text
[905](sec  1)(fl 0x00)(ty   0)(scl   3) (nx 0) 0x0000000000009350 .text
[906](sec  1)(fl 0x00)(ty   0)(scl   3) (nx 0) 0x00000000000093c0 .text
[907](sec  1)(fl 0x00)(ty  20)(scl   2) (nx 0) 0x00000000000093c0 _ZN4core3str21_$LT$impl$u20$str$GT$4find17h03a51de4d636471bE
[908](sec  1)(fl 0x00)(ty   0)(scl   3) (nx 0) 0x0000000000009430 .text
[909](sec  1)(fl 0x00)(ty  20)(scl   2) (nx 0) 0x0000000000009430 _ZN4core3str21_$LT$impl$u20$str$GT$4find28_$u7b$$u7b$closure$u7d$$u7d$17h93233324fd7a2153E
[910](sec  1)(fl 0x00)(ty   0)(scl   3) (nx 0) 0x0000000000009450 .text
[911](sec  1)(fl 0x00)(ty  20)(scl   3) (nx 0) 0x0000000000009450 _ZN4core7unicode12unicode_data17decode_prefix_sum17h5482cd563cddf1f2E
[912](sec  1)(fl 0x00)(ty   0)(scl   3) (nx 0) 0x0000000000009460 .text
[913](sec  1)(fl 0x00)(ty   0)(scl   3) (nx 0) 0x0000000000009480 .text
[914](sec  1)(fl 0x00)(ty  20)(scl   2) (nx 0) 0x0000000000009480 _ZN4core7unicode12unicode_data11skip_search28_$u7b$$u7b$closure$u7d$$u7d$17h19ddbc83a6637539E
[915](sec  1)(fl 0x00)(ty   0)(scl   3) (nx 0) 0x00000000000094c0 .text
[916](sec  1)(fl 0x00)(ty  20)(scl   2) (nx 0) 0x00000000000094c0 _ZN4core7unicode12unicode_data11skip_search28_$u7b$$u7b$closure$u7d$$u7d$17h8581f57ed2bad18cE
[917](sec  2)(fl 0x00)(ty   0)(scl   3) (nx 0) 0x0000000000001910 .rdata
[918](sec  2)(fl 0x00)(ty   0)(scl   3) (nx 0) 0x0000000000001910 __unnamed_98
[919](sec  2)(fl 0x00)(ty   0)(scl   3) (nx 0) 0x0000000000001988 .rdata
[920](sec  2)(fl 0x00)(ty   0)(scl   3) (nx 0) 0x0000000000001988 __unnamed_4
[921](sec  2)(fl 0x00)(ty   0)(scl   3) (nx 0) 0x00000000000019a0 .rdata
[922](sec  2)(fl 0x00)(ty   0)(scl   3) (nx 0) 0x00000000000019a0 str.0
[923](sec  2)(fl 0x00)(ty   0)(scl   3) (nx 0) 0x00000000000019c8 .rdata
[924](sec  2)(fl 0x00)(ty   0)(scl   3) (nx 0) 0x00000000000019c8 __unnamed_6
[925](sec  2)(fl 0x00)(ty   0)(scl   3) (nx 0) 0x00000000000019e0 .rdata
[926](sec  2)(fl 0x00)(ty   0)(scl   3) (nx 0) 0x00000000000019e0 __unnamed_7
[927](sec  2)(fl 0x00)(ty   0)(scl   3) (nx 0) 0x00000000000019f8 .rdata
[928](sec  2)(fl 0x00)(ty   0)(scl   3) (nx 0) 0x00000000000019f8 __unnamed_99
[929](sec  2)(fl 0x00)(ty   0)(scl   3) (nx 0) 0x0000000000001a0a .rdata
[930](sec  2)(fl 0x00)(ty   0)(scl   3) (nx 0) 0x0000000000001a0a __unnamed_100
[931](sec  2)(fl 0x00)(ty   0)(scl   3) (nx 0) 0x0000000000001a1d .rdata
[932](sec  2)(fl 0x00)(ty   0)(scl   3) (nx 0) 0x0000000000001a1d __unnamed_101
[933](sec  2)(fl 0x00)(ty   0)(scl   3) (nx 0) 0x0000000000001a38 .rdata
[934](sec  2)(fl 0x00)(ty   0)(scl   3) (nx 0) 0x0000000000001a38 __unnamed_8
[935](sec  2)(fl 0x00)(ty   0)(scl   3) (nx 0) 0x0000000000001a68 .rdata
[936](sec  2)(fl 0x00)(ty   0)(scl   3) (nx 0) 0x0000000000001a68 __unnamed_9
[937](sec  2)(fl 0x00)(ty   0)(scl   3) (nx 0) 0x0000000000001a80 .rdata
[938](sec  2)(fl 0x00)(ty   0)(scl   3) (nx 0) 0x0000000000001a80 str.1
[939](sec  2)(fl 0x00)(ty   0)(scl   3) (nx 0) 0x0000000000001aa0 .rdata
[940](sec  2)(fl 0x00)(ty   0)(scl   3) (nx 0) 0x0000000000001aa0 __unnamed_32
[941](sec  2)(fl 0x00)(ty   0)(scl   3) (nx 0) 0x0000000000001aa0 .rdata
[942](sec  2)(fl 0x00)(ty   0)(scl   3) (nx 0) 0x0000000000001aa0 __unnamed_109
[943](sec  2)(fl 0x00)(ty   0)(scl   3) (nx 0) 0x0000000000001b18 .rdata
[944](sec  2)(fl 0x00)(ty   0)(scl   3) (nx 0) 0x0000000000001b18 __unnamed_34
[945](sec  2)(fl 0x00)(ty   0)(scl   3) (nx 0) 0x0000000000001b30 .rdata
[946](sec  2)(fl 0x00)(ty   0)(scl   3) (nx 0) 0x0000000000001b30 __unnamed_35
[947](sec  2)(fl 0x00)(ty   0)(scl   3) (nx 0) 0x0000000000001b48 .rdata
[948](sec  2)(fl 0x00)(ty   0)(scl   3) (nx 0) 0x0000000000001b48 __unnamed_47
[949](sec  2)(fl 0x00)(ty   0)(scl   3) (nx 0) 0x0000000000001b4d .rdata
[950](sec  2)(fl 0x00)(ty   0)(scl   3) (nx 0) 0x0000000000001b4d __unnamed_111
[951](sec  2)(fl 0x00)(ty   0)(scl   3) (nx 0) 0x0000000000001b58 .rdata
[952](sec  2)(fl 0x00)(ty   0)(scl   3) (nx 0) 0x0000000000001b58 __unnamed_112
[953](sec  2)(fl 0x00)(ty   0)(scl   3) (nx 0) 0x0000000000001b6e .rdata
[954](sec  2)(fl 0x00)(ty   0)(scl   3) (nx 0) 0x0000000000001b6e __unnamed_113
[955](sec  2)(fl 0x00)(ty   0)(scl   3) (nx 0) 0x0000000000001b70 .rdata
[956](sec  2)(fl 0x00)(ty   0)(scl   3) (nx 0) 0x0000000000001b70 __unnamed_48
[957](sec  2)(fl 0x00)(ty   0)(scl   3) (nx 0) 0x0000000000001ba0 .rdata
[958](sec  2)(fl 0x00)(ty   0)(scl   3) (nx 0) 0x0000000000001ba0 __unnamed_114
[959](sec  2)(fl 0x00)(ty   0)(scl   3) (nx 0) 0x0000000000001bae .rdata
[960](sec  2)(fl 0x00)(ty   0)(scl   3) (nx 0) 0x0000000000001bae __unnamed_115
[961](sec  2)(fl 0x00)(ty   0)(scl   3) (nx 0) 0x0000000000001bb2 .rdata
[962](sec  2)(fl 0x00)(ty   0)(scl   3) (nx 0) 0x0000000000001bb2 __unnamed_116
[963](sec  2)(fl 0x00)(ty   0)(scl   3) (nx 0) 0x0000000000001bc8 .rdata
[964](sec  2)(fl 0x00)(ty   0)(scl   3) (nx 0) 0x0000000000001bc8 __unnamed_49
[965](sec  2)(fl 0x00)(ty   0)(scl   3) (nx 0) 0x0000000000001c08 .rdata
[966](sec  2)(fl 0x00)(ty   0)(scl   3) (nx 0) 0x0000000000001c08 __unnamed_117
[967](sec  2)(fl 0x00)(ty   0)(scl   3) (nx 0) 0x0000000000001c2e .rdata
[968](sec  2)(fl 0x00)(ty   0)(scl   3) (nx 0) 0x0000000000001c2e __unnamed_118
[969](sec  2)(fl 0x00)(ty   0)(scl   3) (nx 0) 0x0000000000001c36 .rdata
[970](sec  2)(fl 0x00)(ty   0)(scl   3) (nx 0) 0x0000000000001c36 __unnamed_119
[971](sec  2)(fl 0x00)(ty   0)(scl   3) (nx 0) 0x0000000000001c40 .rdata
[972](sec  2)(fl 0x00)(ty   0)(scl   3) (nx 0) 0x0000000000001c40 __unnamed_50
[973](sec  2)(fl 0x00)(ty   0)(scl   3) (nx 0) 0x0000000000001c90 .rdata
[974](sec  2)(fl 0x00)(ty   0)(scl   3) (nx 0) 0x0000000000001c90 __unnamed_120
[975](sec  2)(fl 0x00)(ty   0)(scl   3) (nx 0) 0x0000000000001d10 .rdata
[976](sec  2)(fl 0x00)(ty   0)(scl   3) (nx 0) 0x0000000000001d10 __unnamed_51
[977](sec  1)(fl 0x00)(ty  20)(scl   2) (nx 0) 0x0000000000012b10 _ZN4core4char7convert8from_u3217he363795b98e89165E
[978](sec  1)(fl 0x00)(ty  20)(scl   2) (nx 0) 0x00000000000124f0 _ZN4core7unicode12unicode_data15grapheme_extend6lookup17h2b9ae157f6fa2619E
[979](sec  1)(fl 0x00)(ty  20)(scl   2) (nx 0) 0x00000000000108f0 _ZN4core5slice5index77_$LT$impl$u20$core..ops..index..IndexMut$LT$I$GT$$u20$for$u20$$u5b$T$u5d$$GT$9index_mut17ha16b4e406577ea21E
[980](sec  1)(fl 0x00)(ty  20)(scl   2) (nx 0) 0x00000000000108a0 _ZN4core5slice5index77_$LT$impl$u20$core..ops..index..IndexMut$LT$I$GT$$u20$for$u20$$u5b$T$u5d$$GT$9index_mut17h59e0d0ff33c4d9b7E
[981](sec  1)(fl 0x00)(ty  20)(scl   2) (nx 0) 0x000000000000c540 _ZN4core3fmt3num53_$LT$impl$u20$core..fmt..UpperHex$u20$for$u20$u32$GT$3fmt17h5af46e181fd94cd5E
[982](sec  1)(fl 0x00)(ty  20)(scl   2) (nx 0) 0x000000000000cc10 _ZN4core6option15Option$LT$T$GT$5ok_or17hfc91d00dcbea31afE
[983](sec  1)(fl 0x00)(ty  20)(scl   2) (nx 0) 0x000000000000ceb0 _ZN75_$LT$core..option..Option$LT$T$GT$$u20$as$u20$core..ops..try_trait..Try$GT$6branch17hf885856b1464f1b6E
[984](sec  1)(fl 0x00)(ty  20)(scl   2) (nx 0) 0x000000000000cf30 _ZN84_$LT$core..option..Option$LT$T$GT$$u20$as$u20$core..ops..try_trait..FromResidual$GT$13from_residual17h7541e919eccfd371E
[985](sec  1)(fl 0x00)(ty  20)(scl   2) (nx 0) 0x000000000000f550 _ZN4core3cmp5impls48_$LT$impl$u20$core..cmp..Ord$u20$for$u20$u32$GT$3cmp17h3897ae9029252a53E
[986](sec  1)(fl 0x00)(ty  20)(scl   2) (nx 0) 0x0000000000010110 _ZN4core3fmt3num3imp51_$LT$impl$u20$core..fmt..Display$u20$for$u20$u8$GT$3fmt17h0c8a5cc363877b39E
[987](sec  1)(fl 0x00)(ty  20)(scl   2) (nx 0) 0x000000000000cb10 _ZN4core6option15Option$LT$T$GT$3map17hcd5198ac49f78a8dE
[988](sec  1)(fl 0x00)(ty  20)(scl   2) (nx 0) 0x0000000000012b40 _ZN4core4char7convert18from_u32_unchecked17h129d707dc9665910E
[989](sec  1)(fl 0x00)(ty  20)(scl   2) (nx 0) 0x0000000000011090 _ZN4core4iter6traits8iterator8Iterator6filter17h9220a7aeb55c9fdaE
[990](sec  1)(fl 0x00)(ty  20)(scl   2) (nx 0) 0x000000000000e620 _ZN108_$LT$core..iter..adapters..filter..Filter$LT$I$C$P$GT$$u20$as$u20$core..iter..traits..iterator..Iterator$GT$5count17h7f56a8b4409f4c69E
[991](sec  1)(fl 0x00)(ty  20)(scl   2) (nx 0) 0x000000000000c750 _ZN4core6option15Option$LT$T$GT$6unwrap17h3a45be80944cdda1E
[992](sec  1)(fl 0x00)(ty  20)(scl   2) (nx 0) 0x000000000000e4c0 _ZN71_$LT$core..ops..range..Range$LT$Idx$GT$$u20$as$u20$core..fmt..Debug$GT$3fmt17h6103a3704689ac93E
[993](sec  1)(fl 0x00)(ty  20)(scl   2) (nx 0) 0x0000000000009ba0 _ZN4core5slice29_$LT$impl$u20$$u5b$T$u5d$$GT$3get17h7e4344c472fff83dE
[994](sec  1)(fl 0x00)(ty  20)(scl   2) (nx 0) 0x000000000000efc0 _ZN4core3str6traits110_$LT$impl$u20$core..slice..index..SliceIndex$LT$str$GT$$u20$for$u20$core..ops..range..RangeTo$LT$usize$GT$$GT$3get17ha71b748302c6ad42E
[995](sec  1)(fl 0x00)(ty  20)(scl   2) (nx 0) 0x00000000000134c0 _ZN52_$LT$char$u20$as$u20$core..str..pattern..Pattern$GT$13into_searcher17h549800ded3d5ee77E
[996](sec  1)(fl 0x00)(ty  20)(scl   2) (nx 0) 0x0000000000013010 _ZN81_$LT$core..str..pattern..CharSearcher$u20$as$u20$core..str..pattern..Searcher$GT$10next_match17h03d83a7b93e659faE
[997](sec  1)(fl 0x00)(ty  20)(scl   2) (nx 0) 0x000000000000c9f0 _ZN4core6option15Option$LT$T$GT$3map17h323a8560b1a92dffE
[998](sec  1)(fl 0x00)(ty  20)(scl   2) (nx 0) 0x0000000000010770 _ZN58_$LT$$RF$u32$u20$as$u20$core..ops..bit..Shl$LT$i32$GT$$GT$3shl17hcf2d436820b49b06E
[999](sec  1)(fl 0x00)(ty   0)(scl   3) (nx 0) 0x0000000000009524 .text
[1000](sec  3)(fl 0x00)(ty   0)(scl   3) (nx 0) 0x0000000000000000 .data
[1001](sec  3)(fl 0x00)(ty   0)(scl   3) (nx 0) 0x0000000000000008 .bss
[1002](sec  1)(fl 0x00)(ty   0)(scl   3) (nx 0) 0x0000000000009530 .text
[1003](sec  1)(fl 0x00)(ty   0)(scl   3) (nx 0) 0x0000000000009550 .text
[1004](sec  1)(fl 0x00)(ty  20)(scl   2) (nx 0) 0x0000000000009550 _ZN87_$LT$core..str..iter..EncodeUtf16$u20$as$u20$core..iter..traits..iterator..Iterator$GT$4next28_$u7b$$u7b$closure$u7d$$u7d$17ha53d585ffedfc21aE
[1005](sec  1)(fl 0x00)(ty  20)(scl   2) (nx 0) 0x000000000000e2f0 _ZN4core4char7methods22_$LT$impl$u20$char$GT$12encode_utf1617h094dc0fc0fcbd9daE
[1006](sec  1)(fl 0x00)(ty   0)(scl   3) (nx 0) 0x00000000000095c8 .text
[1007](sec  3)(fl 0x00)(ty   0)(scl   3) (nx 0) 0x0000000000000000 .data
[1008](sec  3)(fl 0x00)(ty   0)(scl   3) (nx 0) 0x0000000000000008 .bss
[1009](sec  1)(fl 0x00)(ty   0)(scl   3) (nx 0) 0x00000000000095d0 .text
[1010](sec  1)(fl 0x00)(ty  20)(scl   3) (nx 0) 0x00000000000095d0 _ZN81_$LT$core..str..iter..Chars$u20$as$u20$core..iter..traits..iterator..Iterator$GT$4next17h98f910c81d4ac995E
[1011](sec  1)(fl 0x00)(ty   0)(scl   3) (nx 0) 0x0000000000009600 .text
[1012](sec  1)(fl 0x00)(ty  20)(scl   2) (nx 0) 0x00000000000135b0 _ZN4core6option15Option$LT$T$GT$3map17h32eb5c0af0d15f75E
[1013](sec  1)(fl 0x00)(ty   0)(scl   3) (nx 0) 0x00000000000096a0 .text
[1014](sec  3)(fl 0x00)(ty   0)(scl   3) (nx 0) 0x0000000000000000 .data
[1015](sec  3)(fl 0x00)(ty   0)(scl   3) (nx 0) 0x0000000000000008 .bss
[1016](sec  1)(fl 0x00)(ty   0)(scl   3) (nx 0) 0x00000000000096a0 .text
[1017](sec  1)(fl 0x00)(ty  20)(scl   2) (nx 0) 0x00000000000096a0 _ZN4core5slice29_$LT$impl$u20$$u5b$T$u5d$$GT$10as_mut_ptr17h198f014fbde0d355E
[1018](sec  1)(fl 0x00)(ty   0)(scl   3) (nx 0) 0x00000000000096c0 .text
[1019](sec  1)(fl 0x00)(ty  20)(scl   2) (nx 0) 0x00000000000096c0 _ZN4core5slice29_$LT$impl$u20$$u5b$T$u5d$$GT$17get_unchecked_mut17h8859158ce079ba5dE
[1020](sec  1)(fl 0x00)(ty   0)(scl   3) (nx 0) 0x0000000000009700 .text
[1021](sec  1)(fl 0x00)(ty   0)(scl   3) (nx 0) 0x0000000000009720 .text
[1022](sec  1)(fl 0x00)(ty  20)(scl   2) (nx 0) 0x0000000000009720 _ZN4core5slice29_$LT$impl$u20$$u5b$T$u5d$$GT$8is_empty17hbdace56c87f88193E
[1023](sec  1)(fl 0x00)(ty  20)(scl   2) (nx 0) 0x0000000000013650 _ZN75_$LT$usize$u20$as$u20$core..slice..index..SliceIndex$LT$$u5b$T$u5d$$GT$$GT$17get_unchecked_mut17ha80cb12345561774E
[1024](sec  1)(fl 0x00)(ty   0)(scl   3) (nx 0) 0x0000000000009740 .text
[1025](sec  3)(fl 0x00)(ty   0)(scl   3) (nx 0) 0x0000000000000000 .data
[1026](sec  3)(fl 0x00)(ty   0)(scl   3) (nx 0) 0x0000000000000008 .bss
[1027](sec  1)(fl 0x00)(ty   0)(scl   3) (nx 0) 0x0000000000009740 .text
[1028](sec  2)(fl 0x00)(ty   0)(scl   3) (nx 0) 0x0000000000001d28 .rdata
[1029](sec  2)(fl 0x00)(ty   0)(scl   3) (nx 0) 0x0000000000001d28 __unnamed_1
[1030](sec  1)(fl 0x00)(ty  20)(scl   2) (nx 0) 0x000000000000d930 _ZN4core3ptr52drop_in_place$LT$$BP$mut$u20$efi..EfiSystemTable$GT$17hf0dbc0240a12a7d2E
[1031](sec  1)(fl 0x00)(ty   0)(scl   3) (nx 0) 0x00000000000097c4 .text
[1032](sec  3)(fl 0x00)(ty   0)(scl   3) (nx 0) 0x0000000000000000 .data
[1033](sec  3)(fl 0x00)(ty   0)(scl   3) (nx 0) 0x0000000000000008 .bss
[1034](sec  4)(fl 0x00)(ty   0)(scl   3) (nx 0) 0x0000000000000000 .eh_frame
[1035](sec  1)(fl 0x00)(ty   0)(scl   3) (nx 0) 0x0000000000009800 .text
[1036](sec  3)(fl 0x00)(ty   0)(scl   3) (nx 0) 0x0000000000000000 .data
[1037](sec  3)(fl 0x00)(ty   0)(scl   3) (nx 0) 0x0000000000000008 .bss
[1038](sec  1)(fl 0x00)(ty   0)(scl   3) (nx 0) 0x0000000000009800 .text
[1039](sec  1)(fl 0x00)(ty   0)(scl   3) (nx 0) 0x0000000000009824 .text
[1040](sec  3)(fl 0x00)(ty   0)(scl   3) (nx 0) 0x0000000000000000 .data
[1041](sec  3)(fl 0x00)(ty   0)(scl   3) (nx 0) 0x0000000000000008 .bss
[1042](sec  1)(fl 0x00)(ty   0)(scl   3) (nx 0) 0x0000000000009830 .text
[1043](sec  1)(fl 0x00)(ty  20)(scl   2) (nx 0) 0x0000000000009830 _ZN84_$LT$core..char..EscapeUnicode$u20$as$u20$core..iter..traits..iterator..Iterator$GT$4next17h8efb9b2ece8ea142E
[1044](sec  1)(fl 0x00)(ty   0)(scl   3) (nx 0) 0x0000000000009a20 .text
[1045](sec  1)(fl 0x00)(ty  20)(scl   2) (nx 0) 0x0000000000009a20 _ZN84_$LT$core..char..EscapeDefault$u20$as$u20$core..iter..traits..iterator..Iterator$GT$4next17h117ed8525836c442E
[1046](sec  1)(fl 0x00)(ty   0)(scl   3) (nx 0) 0x0000000000009b10 .text
[1047](sec  1)(fl 0x00)(ty   0)(scl   3) (nx 0) 0x0000000000009b30 .text
[1048](sec  1)(fl 0x00)(ty   0)(scl   3) (nx 0) 0x0000000000009b50 .text
[1049](sec  1)(fl 0x00)(ty  20)(scl   2) (nx 0) 0x0000000000009b50 _ZN4core5slice29_$LT$impl$u20$$u5b$T$u5d$$GT$3get17h5126f3c3afc4644bE
[1050](sec  1)(fl 0x00)(ty   0)(scl   3) (nx 0) 0x0000000000009ba0 .text
[1051](sec  1)(fl 0x00)(ty   0)(scl   3) (nx 0) 0x0000000000009be0 .text
[1052](sec  1)(fl 0x00)(ty   0)(scl   3) (nx 0) 0x0000000000009c20 .text
[1053](sec  1)(fl 0x00)(ty   0)(scl   3) (nx 0) 0x0000000000009c60 .text
[1054](sec  1)(fl 0x00)(ty   0)(scl   3) (nx 0) 0x0000000000009ca0 .text
[1055](sec  1)(fl 0x00)(ty  20)(scl   2) (nx 0) 0x0000000000009ca0 _ZN4core5slice29_$LT$impl$u20$$u5b$T$u5d$$GT$13get_unchecked17h1b19f61cbdc92840E
[1056](sec  1)(fl 0x00)(ty   0)(scl   3) (nx 0) 0x0000000000009ce0 .text
[1057](sec  1)(fl 0x00)(ty  20)(scl   2) (nx 0) 0x0000000000009ce0 _ZN4core5slice29_$LT$impl$u20$$u5b$T$u5d$$GT$13get_unchecked17h3b29d48276140d87E
[1058](sec  1)(fl 0x00)(ty   0)(scl   3) (nx 0) 0x0000000000009d20 .text
[1059](sec  1)(fl 0x00)(ty  20)(scl   2) (nx 0) 0x0000000000009d20 _ZN4core5slice29_$LT$impl$u20$$u5b$T$u5d$$GT$6as_ptr17h04116be541c9bb41E
[1060](sec  1)(fl 0x00)(ty   0)(scl   3) (nx 0) 0x0000000000009d40 .text
[1061](sec  1)(fl 0x00)(ty   0)(scl   3) (nx 0) 0x0000000000009d60 .text
[1062](sec  1)(fl 0x00)(ty   0)(scl   3) (nx 0) 0x0000000000009d80 .text
[1063](sec  1)(fl 0x00)(ty   0)(scl   3) (nx 0) 0x0000000000009db0 .text
[1064](sec  1)(fl 0x00)(ty  20)(scl   2) (nx 0) 0x0000000000009db0 _ZN4core5slice29_$LT$impl$u20$$u5b$T$u5d$$GT$4iter17ha7c9818c20ed246eE
[1065](sec  1)(fl 0x00)(ty   0)(scl   3) (nx 0) 0x0000000000009de0 .text
[1066](sec  1)(fl 0x00)(ty  20)(scl   2) (nx 0) 0x0000000000009de0 _ZN4core5slice29_$LT$impl$u20$$u5b$T$u5d$$GT$16binary_search_by17hb6100db6d00b535aE
[1067](sec  1)(fl 0x00)(ty   0)(scl   3) (nx 0) 0x0000000000009fe0 .text
[1068](sec  1)(fl 0x00)(ty  20)(scl   2) (nx 0) 0x0000000000009fe0 _ZN4core5slice29_$LT$impl$u20$$u5b$T$u5d$$GT$20binary_search_by_key17h42ee422b268ccf50E
[1069](sec  1)(fl 0x00)(ty   0)(scl   3) (nx 0) 0x000000000000a040 .text
[1070](sec  1)(fl 0x00)(ty  20)(scl   3) (nx 0) 0x000000000000a040 _ZN4core5slice29_$LT$impl$u20$$u5b$T$u5d$$GT$20binary_search_by_key28_$u7b$$u7b$closure$u7d$$u7d$17h6f8f0b079a252c34E
[1071](sec  2)(fl 0x00)(ty   0)(scl   3) (nx 0) 0x0000000000001d48 .rdata
[1072](sec  2)(fl 0x00)(ty   0)(scl   3) (nx 0) 0x0000000000001d48 __unnamed_53
[1073](sec  2)(fl 0x00)(ty   0)(scl   3) (nx 0) 0x0000000000001dc0 .rdata
[1074](sec  2)(fl 0x00)(ty   0)(scl   3) (nx 0) 0x0000000000001dc0 __unnamed_1
[1075](sec  2)(fl 0x00)(ty   0)(scl   3) (nx 0) 0x0000000000001de0 .rdata
[1076](sec  2)(fl 0x00)(ty   0)(scl   3) (nx 0) 0x0000000000001de0 str.0
[1077](sec  2)(fl 0x00)(ty   0)(scl   3) (nx 0) 0x0000000000001e08 .rdata
[1078](sec  2)(fl 0x00)(ty   0)(scl   3) (nx 0) 0x0000000000001e08 __unnamed_2
[1079](sec  2)(fl 0x00)(ty   0)(scl   3) (nx 0) 0x0000000000001e20 .rdata
[1080](sec  2)(fl 0x00)(ty   0)(scl   3) (nx 0) 0x0000000000001e20 str.1
[1081](sec  2)(fl 0x00)(ty   0)(scl   3) (nx 0) 0x0000000000001e48 .rdata
[1082](sec  2)(fl 0x00)(ty   0)(scl   3) (nx 0) 0x0000000000001e48 __unnamed_3
[1083](sec  2)(fl 0x00)(ty   0)(scl   3) (nx 0) 0x0000000000001e60 .rdata
[1084](sec  2)(fl 0x00)(ty   0)(scl   3) (nx 0) 0x0000000000001e60 __unnamed_4
[1085](sec  2)(fl 0x00)(ty   0)(scl   3) (nx 0) 0x0000000000001e80 .rdata
[1086](sec  2)(fl 0x00)(ty   0)(scl   3) (nx 0) 0x0000000000001e80 str.2
[1087](sec  2)(fl 0x00)(ty   0)(scl   3) (nx 0) 0x0000000000001eb0 .rdata
[1088](sec  2)(fl 0x00)(ty   0)(scl   3) (nx 0) 0x0000000000001eb0 str.3
[1089](sec  2)(fl 0x00)(ty   0)(scl   3) (nx 0) 0x0000000000001ecc .rdata
[1090](sec  2)(fl 0x00)(ty   0)(scl   3) (nx 0) 0x0000000000001ecc __unnamed_55
[1091](sec  2)(fl 0x00)(ty   0)(scl   3) (nx 0) 0x0000000000001f40 .rdata
[1092](sec  2)(fl 0x00)(ty   0)(scl   3) (nx 0) 0x0000000000001f40 __unnamed_9
[1093](sec  2)(fl 0x00)(ty   0)(scl   3) (nx 0) 0x0000000000001f58 .rdata
[1094](sec  2)(fl 0x00)(ty   0)(scl   3) (nx 0) 0x0000000000001f58 __unnamed_10
[1095](sec  2)(fl 0x00)(ty   0)(scl   3) (nx 0) 0x0000000000001f60 .rdata
[1096](sec  2)(fl 0x00)(ty   0)(scl   3) (nx 0) 0x0000000000001f60 __unnamed_12
[1097](sec  2)(fl 0x00)(ty   0)(scl   3) (nx 0) 0x0000000000001f78 .rdata
[1098](sec  2)(fl 0x00)(ty   0)(scl   3) (nx 0) 0x0000000000001f78 __unnamed_11
[1099](sec  2)(fl 0x00)(ty   0)(scl   3) (nx 0) 0x0000000000001f80 .rdata
[1100](sec  2)(fl 0x00)(ty   0)(scl   3) (nx 0) 0x0000000000001f80 __unnamed_13
[1101](sec  1)(fl 0x00)(ty  20)(scl   2) (nx 0) 0x0000000000012bf0 _ZN4core4char7convert10from_digit17h492910dcf38556acE
[1102](sec  1)(fl 0x00)(ty  20)(scl   2) (nx 0) 0x000000000000e7c0 _ZN106_$LT$core..ops..range..Range$LT$usize$GT$$u20$as$u20$core..slice..index..SliceIndex$LT$$u5b$T$u5d$$GT$$GT$3get17hb2b15afbc7b5a22dE
[1103](sec  1)(fl 0x00)(ty  20)(scl   2) (nx 0) 0x0000000000010c80 _ZN75_$LT$usize$u20$as$u20$core..slice..index..SliceIndex$LT$$u5b$T$u5d$$GT$$GT$3get17h5f837172f987e3c1E
[1104](sec  1)(fl 0x00)(ty  20)(scl   2) (nx 0) 0x0000000000010c20 _ZN75_$LT$usize$u20$as$u20$core..slice..index..SliceIndex$LT$$u5b$T$u5d$$GT$$GT$3get17h449fc364e5886771E
[1105](sec  1)(fl 0x00)(ty  20)(scl   2) (nx 0) 0x0000000000010ce0 _ZN75_$LT$usize$u20$as$u20$core..slice..index..SliceIndex$LT$$u5b$T$u5d$$GT$$GT$3get17hc0a0c204fde6a1f5E
[1106](sec  1)(fl 0x00)(ty  20)(scl   2) (nx 0) 0x0000000000010d40 _ZN75_$LT$usize$u20$as$u20$core..slice..index..SliceIndex$LT$$u5b$T$u5d$$GT$$GT$13get_unchecked17h2ca2a9799fcf2e5bE
[1107](sec  1)(fl 0x00)(ty  20)(scl   2) (nx 0) 0x0000000000010dd0 _ZN75_$LT$usize$u20$as$u20$core..slice..index..SliceIndex$LT$$u5b$T$u5d$$GT$$GT$13get_unchecked17h6264036a97f586e5E
[1108](sec  1)(fl 0x00)(ty  20)(scl   2) (nx 0) 0x0000000000010ef0 _ZN75_$LT$usize$u20$as$u20$core..slice..index..SliceIndex$LT$$u5b$T$u5d$$GT$$GT$13get_unchecked17hd867de8526ba5debE
[1109](sec  1)(fl 0x00)(ty  20)(scl   2) (nx 0) 0x000000000000ee10 _ZN110_$LT$core..ops..range..RangeFrom$LT$usize$GT$$u20$as$u20$core..slice..index..SliceIndex$LT$$u5b$T$u5d$$GT$$GT$13get_unchecked17h7b8d04ed0f8909fdE
[1110](sec  1)(fl 0x00)(ty  20)(scl   2) (nx 0) 0x0000000000011360 _ZN4core5slice4iter13Iter$LT$T$GT$3new17h23e381bc217cc6ffE
[1111](sec  1)(fl 0x00)(ty  20)(scl   2) (nx 0) 0x0000000000011580 _ZN4core5slice4iter13Iter$LT$T$GT$3new17hd2626dbddfb31b27E
[1112](sec  1)(fl 0x00)(ty  20)(scl   2) (nx 0) 0x0000000000010650 _ZN4core5slice3raw14from_raw_parts17h7e06dcf5e44944aaE
[1113](sec  1)(fl 0x00)(ty   0)(scl   3) (nx 0) 0x000000000000a0ac .text
[1114](sec  3)(fl 0x00)(ty   0)(scl   3) (nx 0) 0x0000000000000000 .data
[1115](sec  3)(fl 0x00)(ty   0)(scl   3) (nx 0) 0x0000000000000008 .bss
[1116](sec  1)(fl 0x00)(ty   0)(scl   3) (nx 0) 0x000000000000a0b0 .text
[1117](sec  1)(fl 0x00)(ty  20)(scl   2) (nx 0) 0x000000000000a0b0 _ZN4core4iter5range101_$LT$impl$u20$core..iter..traits..iterator..Iterator$u20$for$u20$core..ops..range..Range$LT$A$GT$$GT$3nth17h355c552e78393176E
[1118](sec  1)(fl 0x00)(ty   0)(scl   3) (nx 0) 0x000000000000a0e0 .text
[1119](sec  1)(fl 0x00)(ty   0)(scl   3) (nx 0) 0x000000000000a110 .text
[1120](sec  1)(fl 0x00)(ty  20)(scl   2) (nx 0) 0x000000000000a110 _ZN89_$LT$core..ops..range..Range$LT$T$GT$$u20$as$u20$core..iter..range..RangeIteratorImpl$GT$8spec_nth17hcec0ef117b9bc77bE
[1121](sec  1)(fl 0x00)(ty  20)(scl   2) (nx 0) 0x000000000000a500 _ZN4core4iter8adapters7step_by15StepBy$LT$I$GT$3new17h99b19e22dc1aa446E
[1122](sec  1)(fl 0x00)(ty  20)(scl   2) (nx 0) 0x00000000000136c0 _ZN4core5clone5impls54_$LT$impl$u20$core..clone..Clone$u20$for$u20$usize$GT$5clone17h9b0ad1ba510d8050E
[1123](sec  1)(fl 0x00)(ty  20)(scl   2) (nx 0) 0x00000000000136d0 _ZN49_$LT$usize$u20$as$u20$core..iter..range..Step$GT$15forward_checked17h0c9f3ebc8c8468a4E
[1124](sec  1)(fl 0x00)(ty  20)(scl   2) (nx 0) 0x0000000000013770 _ZN4core3cmp5impls57_$LT$impl$u20$core..cmp..PartialOrd$u20$for$u20$usize$GT$2lt17h88367ca3f6f31101E
[1125](sec  1)(fl 0x00)(ty  20)(scl   2) (nx 0) 0x0000000000013730 _ZN49_$LT$usize$u20$as$u20$core..iter..range..Step$GT$17forward_unchecked17ha439b2c0721183dfE
[1126](sec  1)(fl 0x00)(ty   0)(scl   3) (nx 0) 0x000000000000a250 .text
[1127](sec  3)(fl 0x00)(ty   0)(scl   3) (nx 0) 0x0000000000000000 .data
[1128](sec  3)(fl 0x00)(ty   0)(scl   3) (nx 0) 0x0000000000000008 .bss
[1129](sec  1)(fl 0x00)(ty   0)(scl   3) (nx 0) 0x000000000000a250 .text
[1130](sec  1)(fl 0x00)(ty   0)(scl   3) (nx 0) 0x000000000000a2b0 .text
[1131](sec  1)(fl 0x00)(ty   0)(scl   3) (nx 0) 0x000000000000a308 .text
[1132](sec  3)(fl 0x00)(ty   0)(scl   3) (nx 0) 0x0000000000000000 .data
[1133](sec  3)(fl 0x00)(ty   0)(scl   3) (nx 0) 0x0000000000000008 .bss
[1134](sec  1)(fl 0x00)(ty   0)(scl   3) (nx 0) 0x000000000000a310 .text
[1135](sec  1)(fl 0x00)(ty   0)(scl   3) (nx 0) 0x000000000000a380 .text
[1136](sec  1)(fl 0x00)(ty  20)(scl   2) (nx 0) 0x000000000000a380 _ZN4core3fmt9Arguments6new_v117h1176baa6d9265a61E
[1137](sec  2)(fl 0x00)(ty   0)(scl   3) (nx 0) 0x0000000000001f98 .rdata
[1138](sec  2)(fl 0x00)(ty   0)(scl   3) (nx 0) 0x0000000000001f98 __unnamed_4
[1139](sec  2)(fl 0x00)(ty   0)(scl   3) (nx 0) 0x0000000000002010 .rdata
[1140](sec  2)(fl 0x00)(ty   0)(scl   3) (nx 0) 0x0000000000002010 __unnamed_1
[1141](sec  2)(fl 0x00)(ty   0)(scl   3) (nx 0) 0x0000000000002030 .rdata
[1142](sec  2)(fl 0x00)(ty   0)(scl   3) (nx 0) 0x0000000000002030 str.0
[1143](sec  2)(fl 0x00)(ty   0)(scl   3) (nx 0) 0x000000000000204c .rdata
[1144](sec  2)(fl 0x00)(ty   0)(scl   3) (nx 0) 0x000000000000204c __unnamed_2
[1145](sec  2)(fl 0x00)(ty   0)(scl   3) (nx 0) 0x0000000000002058 .rdata
[1146](sec  2)(fl 0x00)(ty   0)(scl   3) (nx 0) 0x0000000000002058 __unnamed_3
[1147](sec  1)(fl 0x00)(ty   0)(scl   3) (nx 0) 0x000000000000a494 .text
[1148](sec  3)(fl 0x00)(ty   0)(scl   3) (nx 0) 0x0000000000000000 .data
[1149](sec  3)(fl 0x00)(ty   0)(scl   3) (nx 0) 0x0000000000000008 .bss
[1150](sec  1)(fl 0x00)(ty   0)(scl   3) (nx 0) 0x000000000000a4a0 .text
[1151](sec  1)(fl 0x00)(ty   0)(scl   3) (nx 0) 0x000000000000a500 .text
[1152](sec  1)(fl 0x00)(ty   0)(scl   3) (nx 0) 0x000000000000a5c0 .text
[1153](sec  2)(fl 0x00)(ty   0)(scl   3) (nx 0) 0x0000000000002070 .rdata
[1154](sec  2)(fl 0x00)(ty   0)(scl   3) (nx 0) 0x0000000000002070 __unnamed_1
[1155](sec  2)(fl 0x00)(ty   0)(scl   3) (nx 0) 0x000000000000208b .rdata
[1156](sec  2)(fl 0x00)(ty   0)(scl   3) (nx 0) 0x000000000000208b __unnamed_4
[1157](sec  2)(fl 0x00)(ty   0)(scl   3) (nx 0) 0x0000000000002110 .rdata
[1158](sec  2)(fl 0x00)(ty   0)(scl   3) (nx 0) 0x0000000000002110 __unnamed_2
[1159](sec  2)(fl 0x00)(ty   0)(scl   3) (nx 0) 0x0000000000002128 .rdata
[1160](sec  2)(fl 0x00)(ty   0)(scl   3) (nx 0) 0x0000000000002128 __unnamed_3
[1161](sec  2)(fl 0x00)(ty   0)(scl   3) (nx 0) 0x0000000000002140 .rdata
[1162](sec  2)(fl 0x00)(ty   0)(scl   3) (nx 0) 0x0000000000002140 str.0
[1163](sec  1)(fl 0x00)(ty   0)(scl   3) (nx 0) 0x000000000000a5e4 .text
[1164](sec  3)(fl 0x00)(ty   0)(scl   3) (nx 0) 0x0000000000000000 .data
[1165](sec  3)(fl 0x00)(ty   0)(scl   3) (nx 0) 0x0000000000000008 .bss
[1166](sec  1)(fl 0x00)(ty   0)(scl   3) (nx 0) 0x000000000000a5f0 .text
[1167](sec  1)(fl 0x00)(ty   0)(scl   3) (nx 0) 0x000000000000a628 .text
[1168](sec  3)(fl 0x00)(ty   0)(scl   3) (nx 0) 0x0000000000000000 .data
[1169](sec  3)(fl 0x00)(ty   0)(scl   3) (nx 0) 0x0000000000000008 .bss
[1170](sec  1)(fl 0x00)(ty   0)(scl   3) (nx 0) 0x000000000000a630 .text
[1171](sec  1)(fl 0x00)(ty   0)(scl   3) (nx 0) 0x000000000000a6e0 .text
[1172](sec  1)(fl 0x00)(ty  20)(scl   2) (nx 0) 0x000000000000a6e0 _ZN4core3ptr24slice_from_raw_parts_mut17h8559c3819207854bE
[1173](sec  1)(fl 0x00)(ty  20)(scl   2) (nx 0) 0x0000000000013790 _ZN4core3ptr8metadata18from_raw_parts_mut17h2c94efab06a7246bE
[1174](sec  1)(fl 0x00)(ty   0)(scl   3) (nx 0) 0x000000000000a728 .text
[1175](sec  3)(fl 0x00)(ty   0)(scl   3) (nx 0) 0x0000000000000000 .data
[1176](sec  3)(fl 0x00)(ty   0)(scl   3) (nx 0) 0x0000000000000008 .bss
[1177](sec  1)(fl 0x00)(ty   0)(scl   3) (nx 0) 0x000000000000a730 .text
[1178](sec  1)(fl 0x00)(ty   0)(scl   3) (nx 0) 0x000000000000a750 .text
[1179](sec  1)(fl 0x00)(ty  20)(scl   2) (nx 0) 0x000000000000a750 _ZN50_$LT$T$u20$as$u20$core..convert..Into$LT$U$GT$$GT$4into17hfbb03cec5579ee64E
[1180](sec  1)(fl 0x00)(ty   0)(scl   3) (nx 0) 0x000000000000a770 .text
[1181](sec  1)(fl 0x00)(ty  20)(scl   2) (nx 0) 0x000000000000a770 _ZN53_$LT$T$u20$as$u20$core..convert..TryFrom$LT$U$GT$$GT$8try_from17ha2b26a45d899ca54E
[1182](sec  1)(fl 0x00)(ty   0)(scl   3) (nx 0) 0x000000000000a798 .text
[1183](sec  3)(fl 0x00)(ty   0)(scl   3) (nx 0) 0x0000000000000000 .data
[1184](sec  3)(fl 0x00)(ty   0)(scl   3) (nx 0) 0x0000000000000008 .bss
[1185](sec  1)(fl 0x00)(ty   0)(scl   3) (nx 0) 0x000000000000a7a0 .text
[1186](sec  1)(fl 0x00)(ty  20)(scl   2) (nx 0) 0x000000000000a7a0 _ZN4core3fmt3num12GenericRadix7fmt_int17h1b75a4429a3402aeE
[1187](sec  1)(fl 0x00)(ty   0)(scl   3) (nx 0) 0x000000000000add0 .text
[1188](sec  1)(fl 0x00)(ty  20)(scl   2) (nx 0) 0x000000000000add0 _ZN4core3fmt3num12GenericRadix7fmt_int17h43c885eef8cc2099E
[1189](sec  1)(fl 0x00)(ty   0)(scl   3) (nx 0) 0x000000000000b400 .text
[1190](sec  1)(fl 0x00)(ty  20)(scl   2) (nx 0) 0x000000000000b400 _ZN4core3fmt3num12GenericRadix7fmt_int17h6a94429f94d33c94E
[1191](sec  1)(fl 0x00)(ty   0)(scl   3) (nx 0) 0x000000000000ba30 .text
[1192](sec  1)(fl 0x00)(ty  20)(scl   2) (nx 0) 0x000000000000ba30 _ZN4core3fmt3num12GenericRadix7fmt_int17h723f178d53d7baceE
[1193](sec  1)(fl 0x00)(ty   0)(scl   3) (nx 0) 0x000000000000c040 .text
[1194](sec  1)(fl 0x00)(ty  20)(scl   2) (nx 0) 0x000000000000c040 _ZN49_$LT$u8$u20$as$u20$core..fmt..num..DisplayInt$GT$6to_u6417hce72745dc245e71dE
[1195](sec  1)(fl 0x00)(ty   0)(scl   3) (nx 0) 0x000000000000c050 .text
[1196](sec  1)(fl 0x00)(ty  20)(scl   2) (nx 0) 0x000000000000c050 _ZN50_$LT$u32$u20$as$u20$core..fmt..num..DisplayInt$GT$4zero17h74818da9547e97cfE
[1197](sec  1)(fl 0x00)(ty   0)(scl   3) (nx 0) 0x000000000000c060 .text
[1198](sec  1)(fl 0x00)(ty  20)(scl   2) (nx 0) 0x000000000000c060 _ZN50_$LT$u32$u20$as$u20$core..fmt..num..DisplayInt$GT$7from_u817h9d6d3ab7d296d543E
[1199](sec  1)(fl 0x00)(ty   0)(scl   3) (nx 0) 0x000000000000c070 .text
[1200](sec  1)(fl 0x00)(ty  20)(scl   2) (nx 0) 0x000000000000c070 _ZN50_$LT$u32$u20$as$u20$core..fmt..num..DisplayInt$GT$5to_u817hc1e2783f647b55d2E
[1201](sec  1)(fl 0x00)(ty   0)(scl   3) (nx 0) 0x000000000000c080 .text
[1202](sec  1)(fl 0x00)(ty  20)(scl   2) (nx 0) 0x000000000000c080 _ZN50_$LT$u32$u20$as$u20$core..fmt..num..DisplayInt$GT$6to_u6417h3a1e81ba7aa28b7fE
[1203](sec  1)(fl 0x00)(ty   0)(scl   3) (nx 0) 0x000000000000c090 .text
[1204](sec  1)(fl 0x00)(ty  20)(scl   2) (nx 0) 0x000000000000c090 _ZN50_$LT$u64$u20$as$u20$core..fmt..num..DisplayInt$GT$4zero17hbd28dbd38b771e9fE
[1205](sec  1)(fl 0x00)(ty   0)(scl   3) (nx 0) 0x000000000000c0a0 .text
[1206](sec  1)(fl 0x00)(ty  20)(scl   2) (nx 0) 0x000000000000c0a0 _ZN50_$LT$u64$u20$as$u20$core..fmt..num..DisplayInt$GT$7from_u817h028c7bf0541e58f6E
[1207](sec  1)(fl 0x00)(ty   0)(scl   3) (nx 0) 0x000000000000c0b0 .text
[1208](sec  1)(fl 0x00)(ty  20)(scl   2) (nx 0) 0x000000000000c0b0 _ZN50_$LT$u64$u20$as$u20$core..fmt..num..DisplayInt$GT$5to_u817h52ac547a96f9dde8E
[1209](sec  1)(fl 0x00)(ty   0)(scl   3) (nx 0) 0x000000000000c0c0 .text
[1210](sec  1)(fl 0x00)(ty  20)(scl   2) (nx 0) 0x000000000000c0c0 _ZN52_$LT$usize$u20$as$u20$core..fmt..num..DisplayInt$GT$4zero17he5f621ee49f8df58E
[1211](sec  1)(fl 0x00)(ty   0)(scl   3) (nx 0) 0x000000000000c0d0 .text
[1212](sec  1)(fl 0x00)(ty  20)(scl   2) (nx 0) 0x000000000000c0d0 _ZN52_$LT$usize$u20$as$u20$core..fmt..num..DisplayInt$GT$7from_u817h8f382d9bc0f56086E
[1213](sec  1)(fl 0x00)(ty   0)(scl   3) (nx 0) 0x000000000000c0e0 .text
[1214](sec  1)(fl 0x00)(ty  20)(scl   2) (nx 0) 0x000000000000c0e0 _ZN52_$LT$usize$u20$as$u20$core..fmt..num..DisplayInt$GT$5to_u817hfec898a869e4b4ebE
[1215](sec  1)(fl 0x00)(ty   0)(scl   3) (nx 0) 0x000000000000c0f0 .text
[1216](sec  1)(fl 0x00)(ty  20)(scl   2) (nx 0) 0x000000000000c0f0 _ZN52_$LT$usize$u20$as$u20$core..fmt..num..DisplayInt$GT$6to_u6417h561f02c2a3c6ee4cE
[1217](sec  1)(fl 0x00)(ty   0)(scl   3) (nx 0) 0x000000000000c100 .text
[1218](sec  1)(fl 0x00)(ty  20)(scl   2) (nx 0) 0x000000000000c100 _ZN73_$LT$core..fmt..num..LowerHex$u20$as$u20$core..fmt..num..GenericRadix$GT$5digit17ha5860c4c5949750cE
[1219](sec  1)(fl 0x00)(ty   0)(scl   3) (nx 0) 0x000000000000c2e0 .text
[1220](sec  1)(fl 0x00)(ty  20)(scl   2) (nx 0) 0x000000000000c2e0 _ZN73_$LT$core..fmt..num..UpperHex$u20$as$u20$core..fmt..num..GenericRadix$GT$5digit17hd1eb7f486b42a999E
[1221](sec  1)(fl 0x00)(ty   0)(scl   3) (nx 0) 0x000000000000c4c0 .text
[1222](sec  1)(fl 0x00)(ty   0)(scl   3) (nx 0) 0x000000000000c500 .text
[1223](sec  1)(fl 0x00)(ty  20)(scl   2) (nx 0) 0x000000000000c500 _ZN4core3fmt3num55_$LT$impl$u20$core..fmt..UpperHex$u20$for$u20$usize$GT$3fmt17h7efa3b9e48444caaE
[1224](sec  1)(fl 0x00)(ty   0)(scl   3) (nx 0) 0x000000000000c540 .text
[1225](sec  1)(fl 0x00)(ty   0)(scl   3) (nx 0) 0x000000000000c580 .text
[1226](sec  1)(fl 0x00)(ty   0)(scl   3) (nx 0) 0x000000000000c5c0 .text
[1227](sec  2)(fl 0x00)(ty   0)(scl   3) (nx 0) 0x0000000000002161 .rdata
[1228](sec  2)(fl 0x00)(ty   0)(scl   3) (nx 0) 0x0000000000002161 __unnamed_64
[1229](sec  2)(fl 0x00)(ty   0)(scl   3) (nx 0) 0x00000000000021d8 .rdata
[1230](sec  2)(fl 0x00)(ty   0)(scl   3) (nx 0) 0x00000000000021d8 __unnamed_2
[1231](sec  2)(fl 0x00)(ty   0)(scl   3) (nx 0) 0x00000000000021f0 .rdata
[1232](sec  2)(fl 0x00)(ty   0)(scl   3) (nx 0) 0x00000000000021f0 str.0
[1233](sec  2)(fl 0x00)(ty   0)(scl   3) (nx 0) 0x0000000000002218 .rdata
[1234](sec  2)(fl 0x00)(ty   0)(scl   3) (nx 0) 0x0000000000002218 __unnamed_3
[1235](sec  2)(fl 0x00)(ty   0)(scl   3) (nx 0) 0x0000000000002230 .rdata
[1236](sec  2)(fl 0x00)(ty   0)(scl   3) (nx 0) 0x0000000000002230 __unnamed_1
[1237](sec  2)(fl 0x00)(ty   0)(scl   3) (nx 0) 0x0000000000002248 .rdata
[1238](sec  2)(fl 0x00)(ty   0)(scl   3) (nx 0) 0x0000000000002248 __unnamed_4
[1239](sec  2)(fl 0x00)(ty   0)(scl   3) (nx 0) 0x000000000000224a .rdata
[1240](sec  2)(fl 0x00)(ty   0)(scl   3) (nx 0) 0x000000000000224a __unnamed_65
[1241](sec  2)(fl 0x00)(ty   0)(scl   3) (nx 0) 0x0000000000002318 .rdata
[1242](sec  2)(fl 0x00)(ty   0)(scl   2) (nx 0) 0x0000000000002318 _ZN4core3fmt3num14DEC_DIGITS_LUT17h551510eed7facc75E
[1243](sec  2)(fl 0x00)(ty   0)(scl   3) (nx 0) 0x0000000000002320 .rdata
[1244](sec  2)(fl 0x00)(ty   0)(scl   3) (nx 0) 0x0000000000002320 str.1
[1245](sec  2)(fl 0x00)(ty   0)(scl   3) (nx 0) 0x000000000000233c .rdata
[1246](sec  2)(fl 0x00)(ty   0)(scl   3) (nx 0) 0x000000000000233c __unnamed_37
[1247](sec  2)(fl 0x00)(ty   0)(scl   3) (nx 0) 0x000000000000233c .rdata
[1248](sec  2)(fl 0x00)(ty   0)(scl   3) (nx 0) 0x000000000000233c __unnamed_66
[1249](sec  2)(fl 0x00)(ty   0)(scl   3) (nx 0) 0x0000000000002358 .rdata
[1250](sec  2)(fl 0x00)(ty   0)(scl   3) (nx 0) 0x0000000000002358 __unnamed_67
[1251](sec  2)(fl 0x00)(ty   0)(scl   3) (nx 0) 0x0000000000002360 .rdata
[1252](sec  2)(fl 0x00)(ty   0)(scl   3) (nx 0) 0x0000000000002360 __unnamed_47
[1253](sec  2)(fl 0x00)(ty   0)(scl   3) (nx 0) 0x0000000000002380 .rdata
[1254](sec  2)(fl 0x00)(ty   0)(scl   3) (nx 0) 0x0000000000002380 __unnamed_52
[1255](sec  2)(fl 0x00)(ty   0)(scl   3) (nx 0) 0x0000000000002398 .rdata
[1256](sec  2)(fl 0x00)(ty   0)(scl   3) (nx 0) 0x0000000000002398 __unnamed_54
[1257](sec  2)(fl 0x00)(ty   0)(scl   3) (nx 0) 0x00000000000023b0 .rdata
[1258](sec  2)(fl 0x00)(ty   0)(scl   3) (nx 0) 0x00000000000023b0 __unnamed_55
[1259](sec  2)(fl 0x00)(ty   0)(scl   3) (nx 0) 0x00000000000023c8 .rdata
[1260](sec  2)(fl 0x00)(ty   0)(scl   3) (nx 0) 0x00000000000023c8 __unnamed_53
[1261](sec  2)(fl 0x00)(ty   0)(scl   3) (nx 0) 0x00000000000023d0 .rdata
[1262](sec  2)(fl 0x00)(ty   0)(scl   3) (nx 0) 0x00000000000023d0 __unnamed_56
[1263](sec  2)(fl 0x00)(ty   0)(scl   3) (nx 0) 0x00000000000023e8 .rdata
[1264](sec  2)(fl 0x00)(ty   0)(scl   3) (nx 0) 0x00000000000023e8 __unnamed_57
[1265](sec  2)(fl 0x00)(ty   0)(scl   3) (nx 0) 0x0000000000002400 .rdata
[1266](sec  2)(fl 0x00)(ty   0)(scl   3) (nx 0) 0x0000000000002400 __unnamed_58
[1267](sec  2)(fl 0x00)(ty   0)(scl   3) (nx 0) 0x0000000000002418 .rdata
[1268](sec  2)(fl 0x00)(ty   0)(scl   3) (nx 0) 0x0000000000002418 __unnamed_59
[1269](sec  2)(fl 0x00)(ty   0)(scl   3) (nx 0) 0x0000000000002430 .rdata
[1270](sec  2)(fl 0x00)(ty   0)(scl   3) (nx 0) 0x0000000000002430 __unnamed_60
[1271](sec  1)(fl 0x00)(ty  20)(scl   2) (nx 0) 0x000000000000f4c0 _ZN4core3cmp5impls57_$LT$impl$u20$core..cmp..PartialOrd$u20$for$u20$usize$GT$2ge17h9db998d58145982eE
[1272](sec  1)(fl 0x00)(ty  20)(scl   2) (nx 0) 0x00000000000111b0 _ZN4core4iter6traits8iterator8Iterator3rev17h061fc5ebc5d736c2E
[1273](sec  1)(fl 0x00)(ty  20)(scl   2) (nx 0) 0x0000000000011040 _ZN63_$LT$I$u20$as$u20$core..iter..traits..collect..IntoIterator$GT$9into_iter17h5b0ad372824b11f2E
[1274](sec  1)(fl 0x00)(ty  20)(scl   2) (nx 0) 0x0000000000011020 _ZN98_$LT$core..iter..adapters..rev..Rev$LT$I$GT$$u20$as$u20$core..iter..traits..iterator..Iterator$GT$4next17hd374a6334636d9e4E
[1275](sec  1)(fl 0x00)(ty  20)(scl   2) (nx 0) 0x000000000000f7b0 _ZN47_$LT$usize$u20$as$u20$core..ops..arith..Rem$GT$3rem17hdba8091b7c03b005E
[1276](sec  1)(fl 0x00)(ty  20)(scl   2) (nx 0) 0x000000000000f6a0 _ZN47_$LT$usize$u20$as$u20$core..ops..arith..Div$GT$3div17h0f38a35894802c1eE
[1277](sec  1)(fl 0x00)(ty  20)(scl   2) (nx 0) 0x000000000000f440 _ZN4core3cmp5impls56_$LT$impl$u20$core..cmp..PartialEq$u20$for$u20$usize$GT$2eq17h67fe25b58164af04E
[1278](sec  1)(fl 0x00)(ty  20)(scl   2) (nx 0) 0x000000000000f5c0 _ZN47_$LT$usize$u20$as$u20$core..ops..arith..Sub$GT$3sub17h16a144b0430a508cE
[1279](sec  1)(fl 0x00)(ty  20)(scl   2) (nx 0) 0x000000000000f5a0 _ZN4core3cmp5impls55_$LT$impl$u20$core..cmp..PartialOrd$u20$for$u20$u64$GT$2ge17h3a530ba00cb7532bE
[1280](sec  1)(fl 0x00)(ty  20)(scl   2) (nx 0) 0x000000000000f860 _ZN45_$LT$u64$u20$as$u20$core..ops..arith..Rem$GT$3rem17h215a82b651a9d58fE
[1281](sec  1)(fl 0x00)(ty  20)(scl   2) (nx 0) 0x000000000000f750 _ZN45_$LT$u64$u20$as$u20$core..ops..arith..Div$GT$3div17h670b8a8fff0515e9E
[1282](sec  1)(fl 0x00)(ty  20)(scl   2) (nx 0) 0x000000000000f480 _ZN4core3cmp5impls54_$LT$impl$u20$core..cmp..PartialEq$u20$for$u20$u64$GT$2eq17h6e13c9e76a267f2fE
[1283](sec  1)(fl 0x00)(ty  20)(scl   2) (nx 0) 0x000000000000f650 _ZN45_$LT$u64$u20$as$u20$core..ops..arith..Sub$GT$3sub17h42861e8f39394cc8E
[1284](sec  1)(fl 0x00)(ty  20)(scl   2) (nx 0) 0x000000000000f530 _ZN4core3cmp5impls55_$LT$impl$u20$core..cmp..PartialOrd$u20$for$u20$u32$GT$2ge17hc57cd661fa462b5bE
[1285](sec  1)(fl 0x00)(ty  20)(scl   2) (nx 0) 0x000000000000f810 _ZN45_$LT$u32$u20$as$u20$core..ops..arith..Rem$GT$3rem17h6badc1fd515c1e01E
[1286](sec  1)(fl 0x00)(ty  20)(scl   2) (nx 0) 0x000000000000f700 _ZN45_$LT$u32$u20$as$u20$core..ops..arith..Div$GT$3div17hf5fe6abc85c34eccE
[1287](sec  1)(fl 0x00)(ty  20)(scl   2) (nx 0) 0x000000000000f460 _ZN4core3cmp5impls54_$LT$impl$u20$core..cmp..PartialEq$u20$for$u20$u32$GT$2eq17h515a2137f2655e1dE
[1288](sec  1)(fl 0x00)(ty  20)(scl   2) (nx 0) 0x000000000000f610 _ZN45_$LT$u32$u20$as$u20$core..ops..arith..Sub$GT$3sub17h3ef1c47633e23154E
[1289](sec  1)(fl 0x00)(ty   0)(scl   3) (nx 0) 0x000000000000c660 .text
[1290](sec  3)(fl 0x00)(ty   0)(scl   3) (nx 0) 0x0000000000000000 .data
[1291](sec  3)(fl 0x00)(ty   0)(scl   3) (nx 0) 0x0000000000000008 .bss
[1292](sec  1)(fl 0x00)(ty   0)(scl   3) (nx 0) 0x000000000000c660 .text
[1293](sec  1)(fl 0x00)(ty  20)(scl   2) (nx 0) 0x000000000000c660 _ZN4core6option15Option$LT$T$GT$7is_some17h44fb3d68ec0bd592E
[1294](sec  1)(fl 0x00)(ty   0)(scl   3) (nx 0) 0x000000000000c690 .text
[1295](sec  1)(fl 0x00)(ty  20)(scl   2) (nx 0) 0x000000000000c690 _ZN4core6option15Option$LT$T$GT$7is_some17he5a46bdd9061f70dE
[1296](sec  1)(fl 0x00)(ty   0)(scl   3) (nx 0) 0x000000000000c6d0 .text
[1297](sec  1)(fl 0x00)(ty   0)(scl   3) (nx 0) 0x000000000000c700 .text
[1298](sec  1)(fl 0x00)(ty  20)(scl   2) (nx 0) 0x000000000000c700 _ZN4core6option15Option$LT$T$GT$6as_mut17h224900ae97084a3fE
[1299](sec  1)(fl 0x00)(ty   0)(scl   3) (nx 0) 0x000000000000c750 .text
[1300](sec  1)(fl 0x00)(ty   0)(scl   3) (nx 0) 0x000000000000c7a0 .text
[1301](sec  1)(fl 0x00)(ty   0)(scl   3) (nx 0) 0x000000000000c7f0 .text
[1302](sec  1)(fl 0x00)(ty   0)(scl   3) (nx 0) 0x000000000000c890 .text
[1303](sec  1)(fl 0x00)(ty   0)(scl   3) (nx 0) 0x000000000000c8f0 .text
[1304](sec  1)(fl 0x00)(ty  20)(scl   2) (nx 0) 0x000000000000c8f0 _ZN4core6option15Option$LT$T$GT$16unwrap_unchecked17hf4c214bdf2f00c7fE
[1305](sec  1)(fl 0x00)(ty   0)(scl   3) (nx 0) 0x000000000000c960 .text
[1306](sec  1)(fl 0x00)(ty   0)(scl   3) (nx 0) 0x000000000000c9f0 .text
[1307](sec  1)(fl 0x00)(ty   0)(scl   3) (nx 0) 0x000000000000ca90 .text
[1308](sec  1)(fl 0x00)(ty  20)(scl   2) (nx 0) 0x000000000000ca90 _ZN4core6option15Option$LT$T$GT$3map17h689993439c77becfE
[1309](sec  1)(fl 0x00)(ty   0)(scl   3) (nx 0) 0x000000000000cb10 .text
[1310](sec  1)(fl 0x00)(ty   0)(scl   3) (nx 0) 0x000000000000cb80 .text
[1311](sec  1)(fl 0x00)(ty  20)(scl   2) (nx 0) 0x000000000000cb80 _ZN4core6option15Option$LT$T$GT$3map17he45eaf750c16f2efE
[1312](sec  1)(fl 0x00)(ty   0)(scl   3) (nx 0) 0x000000000000cc10 .text
[1313](sec  1)(fl 0x00)(ty   0)(scl   3) (nx 0) 0x000000000000ccb0 .text
[1314](sec  1)(fl 0x00)(ty  20)(scl   2) (nx 0) 0x000000000000ccb0 _ZN4core6option15Option$LT$T$GT$6insert17h11f0d27a80ce2cb5E
[1315](sec  1)(fl 0x00)(ty   0)(scl   3) (nx 0) 0x000000000000cd40 .text
[1316](sec  1)(fl 0x00)(ty  20)(scl   2) (nx 0) 0x000000000000cd40 _ZN4core6option19Option$LT$$RF$T$GT$6cloned17h4be28d5ef9dff5d3E
[1317](sec  1)(fl 0x00)(ty   0)(scl   3) (nx 0) 0x000000000000cd70 .text
[1318](sec  1)(fl 0x00)(ty  20)(scl   3) (nx 0) 0x000000000000cd70 _ZN4core6option19Option$LT$$RF$T$GT$6cloned28_$u7b$$u7b$closure$u7d$$u7d$17h6569fc4a1c3d7c97E
[1319](sec  1)(fl 0x00)(ty   0)(scl   3) (nx 0) 0x000000000000cd90 .text
[1320](sec  1)(fl 0x00)(ty   0)(scl   3) (nx 0) 0x000000000000cdd0 .text
[1321](sec  1)(fl 0x00)(ty  20)(scl   2) (nx 0) 0x000000000000cdd0 _ZN75_$LT$core..option..Option$LT$T$GT$$u20$as$u20$core..ops..try_trait..Try$GT$6branch17h7682e690ed65cbd4E
[1322](sec  1)(fl 0x00)(ty   0)(scl   3) (nx 0) 0x000000000000ce30 .text
[1323](sec  1)(fl 0x00)(ty   0)(scl   3) (nx 0) 0x000000000000ce70 .text
[1324](sec  1)(fl 0x00)(ty   0)(scl   3) (nx 0) 0x000000000000ceb0 .text
[1325](sec  1)(fl 0x00)(ty   0)(scl   3) (nx 0) 0x000000000000cef0 .text
[1326](sec  1)(fl 0x00)(ty   0)(scl   3) (nx 0) 0x000000000000cf10 .text
[1327](sec  1)(fl 0x00)(ty   0)(scl   3) (nx 0) 0x000000000000cf30 .text
[1328](sec  1)(fl 0x00)(ty   0)(scl   3) (nx 0) 0x000000000000cf50 .text
[1329](sec  1)(fl 0x00)(ty  20)(scl   2) (nx 0) 0x000000000000cf50 _ZN84_$LT$core..option..Option$LT$T$GT$$u20$as$u20$core..ops..try_trait..FromResidual$GT$13from_residual17ha74f0924de7fdceeE
[1330](sec  1)(fl 0x00)(ty   0)(scl   3) (nx 0) 0x000000000000cf60 .text
[1331](sec  1)(fl 0x00)(ty   0)(scl   3) (nx 0) 0x000000000000cf80 .text
[1332](sec  1)(fl 0x00)(ty  20)(scl   2) (nx 0) 0x000000000000cf80 _ZN79_$LT$core..fmt..builders..PadAdapterState$u20$as$u20$core..default..Default$GT$7default17h82fc208d56db3335E
[1333](sec  1)(fl 0x00)(ty   0)(scl   3) (nx 0) 0x000000000000cfa0 .text
[1334](sec  1)(fl 0x00)(ty  20)(scl   3) (nx 0) 0x000000000000cfa0 _ZN4core3fmt8builders10PadAdapter4wrap17h47e801d33bde5b13E
[1335](sec  1)(fl 0x00)(ty   0)(scl   3) (nx 0) 0x000000000000cfe0 .text
[1336](sec  1)(fl 0x00)(ty   0)(scl   3) (nx 0) 0x000000000000d040 .text
[1337](sec  1)(fl 0x00)(ty  20)(scl   2) (nx 0) 0x000000000000d040 _ZN68_$LT$core..fmt..builders..PadAdapter$u20$as$u20$core..fmt..Write$GT$9write_str17ha40bb0e22632ce8cE
[1338](sec  1)(fl 0x00)(ty   0)(scl   3) (nx 0) 0x000000000000d2b0 .text
[1339](sec  1)(fl 0x00)(ty   0)(scl   3) (nx 0) 0x000000000000d350 .text
[1340](sec  1)(fl 0x00)(ty   0)(scl   3) (nx 0) 0x000000000000d3f0 .text
[1341](sec  1)(fl 0x00)(ty   0)(scl   3) (nx 0) 0x000000000000d620 .text
[1342](sec  1)(fl 0x00)(ty   0)(scl   3) (nx 0) 0x000000000000d680 .text
[1343](sec  1)(fl 0x00)(ty   0)(scl   3) (nx 0) 0x000000000000d770 .text
[1344](sec  1)(fl 0x00)(ty  20)(scl   3) (nx 0) 0x000000000000d770 _ZN4core3fmt8builders10DebugTuple9is_pretty17h362a29a433ae6d58E
[1345](sec  1)(fl 0x00)(ty   0)(scl   3) (nx 0) 0x000000000000d7a0 .text
[1346](sec  1)(fl 0x00)(ty  20)(scl   2) (nx 0) 0x000000000000d7a0 _ZN4core3fmt5Write10write_char17heb8be51578677a51E
[1347](sec  1)(fl 0x00)(ty   0)(scl   3) (nx 0) 0x000000000000d810 .text
[1348](sec  1)(fl 0x00)(ty  20)(scl   2) (nx 0) 0x000000000000d810 _ZN4core3fmt5Write9write_fmt17hdddb6e01d97af519E
[1349](sec  1)(fl 0x00)(ty   0)(scl   3) (nx 0) 0x000000000000d860 .text
[1350](sec  1)(fl 0x00)(ty  20)(scl   2) (nx 0) 0x000000000000d860 _ZN50_$LT$$RF$mut$u20$W$u20$as$u20$core..fmt..Write$GT$9write_str17h963366ed843eee26E
[1351](sec  1)(fl 0x00)(ty   0)(scl   3) (nx 0) 0x000000000000d890 .text
[1352](sec  1)(fl 0x00)(ty  20)(scl   2) (nx 0) 0x000000000000d890 _ZN50_$LT$$RF$mut$u20$W$u20$as$u20$core..fmt..Write$GT$10write_char17hf4c2ee537348e2baE
[1353](sec  1)(fl 0x00)(ty   0)(scl   3) (nx 0) 0x000000000000d8c0 .text
[1354](sec  1)(fl 0x00)(ty  20)(scl   2) (nx 0) 0x000000000000d8c0 _ZN50_$LT$$RF$mut$u20$W$u20$as$u20$core..fmt..Write$GT$9write_fmt17hf6075e1288fa5f78E
[1355](sec  2)(fl 0x00)(ty   0)(scl   3) (nx 0) 0x0000000000002450 .rdata
[1356](sec  2)(fl 0x00)(ty   0)(scl   3) (nx 0) 0x0000000000002450 str.1
[1357](sec  2)(fl 0x00)(ty   0)(scl   3) (nx 0) 0x000000000000246c .rdata
[1358](sec  2)(fl 0x00)(ty   0)(scl   3) (nx 0) 0x000000000000246c __unnamed_70
[1359](sec  2)(fl 0x00)(ty   0)(scl   3) (nx 0) 0x0000000000002497 .rdata
[1360](sec  2)(fl 0x00)(ty   0)(scl   3) (nx 0) 0x0000000000002497 __unnamed_71
[1361](sec  2)(fl 0x00)(ty   0)(scl   3) (nx 0) 0x00000000000024b7 .rdata
[1362](sec  2)(fl 0x00)(ty   0)(scl   3) (nx 0) 0x00000000000024b7 __unnamed_128
[1363](sec  2)(fl 0x00)(ty   0)(scl   3) (nx 0) 0x0000000000002528 .rdata
[1364](sec  2)(fl 0x00)(ty   0)(scl   3) (nx 0) 0x0000000000002528 __unnamed_72
[1365](sec  2)(fl 0x00)(ty   0)(scl   3) (nx 0) 0x0000000000002540 .rdata
[1366](sec  2)(fl 0x00)(ty   0)(scl   3) (nx 0) 0x0000000000002540 __unnamed_73
[1367](sec  2)(fl 0x00)(ty   0)(scl   3) (nx 0) 0x0000000000002570 .rdata
[1368](sec  2)(fl 0x00)(ty   0)(scl   3) (nx 0) 0x0000000000002570 __unnamed_74
[1369](sec  2)(fl 0x00)(ty   0)(scl   3) (nx 0) 0x0000000000002574 .rdata
[1370](sec  2)(fl 0x00)(ty   0)(scl   3) (nx 0) 0x0000000000002574 __unnamed_129
[1371](sec  2)(fl 0x00)(ty   0)(scl   3) (nx 0) 0x00000000000025f0 .rdata
[1372](sec  2)(fl 0x00)(ty   0)(scl   3) (nx 0) 0x00000000000025f0 __unnamed_75
[1373](sec  2)(fl 0x00)(ty   0)(scl   3) (nx 0) 0x0000000000002608 .rdata
[1374](sec  2)(fl 0x00)(ty   0)(scl   3) (nx 0) 0x0000000000002608 __unnamed_76
[1375](sec  2)(fl 0x00)(ty   0)(scl   3) (nx 0) 0x0000000000002620 .rdata
[1376](sec  2)(fl 0x00)(ty   0)(scl   3) (nx 0) 0x0000000000002620 __unnamed_77
[1377](sec  2)(fl 0x00)(ty   0)(scl   3) (nx 0) 0x0000000000002638 .rdata
[1378](sec  2)(fl 0x00)(ty   0)(scl   3) (nx 0) 0x0000000000002638 __unnamed_80
[1379](sec  2)(fl 0x00)(ty   0)(scl   3) (nx 0) 0x000000000000263a .rdata
[1380](sec  2)(fl 0x00)(ty   0)(scl   3) (nx 0) 0x000000000000263a __unnamed_82
[1381](sec  2)(fl 0x00)(ty   0)(scl   3) (nx 0) 0x0000000000002640 .rdata
[1382](sec  2)(fl 0x00)(ty   0)(scl   3) (nx 0) 0x0000000000002640 __unnamed_88
[1383](sec  2)(fl 0x00)(ty   0)(scl   3) (nx 0) 0x0000000000002658 .rdata
[1384](sec  2)(fl 0x00)(ty   0)(scl   3) (nx 0) 0x0000000000002658 __unnamed_89
[1385](sec  2)(fl 0x00)(ty   0)(scl   3) (nx 0) 0x000000000000265a .rdata
[1386](sec  2)(fl 0x00)(ty   0)(scl   3) (nx 0) 0x000000000000265a __unnamed_90
[1387](sec  2)(fl 0x00)(ty   0)(scl   3) (nx 0) 0x000000000000265b .rdata
[1388](sec  2)(fl 0x00)(ty   0)(scl   3) (nx 0) 0x000000000000265b __unnamed_92
[1389](sec  2)(fl 0x00)(ty   0)(scl   3) (nx 0) 0x000000000000265c .rdata
[1390](sec  2)(fl 0x00)(ty   0)(scl   3) (nx 0) 0x000000000000265c __unnamed_91
[1391](sec  2)(fl 0x00)(ty   0)(scl   3) (nx 0) 0x0000000000002660 .rdata
[1392](sec  2)(fl 0x00)(ty   0)(scl   3) (nx 0) 0x0000000000002660 __unnamed_106
[1393](sec  1)(fl 0x00)(ty   0)(scl   3) (nx 0) 0x000000000000d904 .text
[1394](sec  3)(fl 0x00)(ty   0)(scl   3) (nx 0) 0x0000000000000000 .data
[1395](sec  3)(fl 0x00)(ty   0)(scl   3) (nx 0) 0x0000000000000008 .bss
[1396](sec  1)(fl 0x00)(ty   0)(scl   3) (nx 0) 0x000000000000d910 .text
[1397](sec  1)(fl 0x00)(ty   0)(scl   3) (nx 0) 0x000000000000d920 .text
[1398](sec  1)(fl 0x00)(ty   0)(scl   3) (nx 0) 0x000000000000d930 .text
[1399](sec  1)(fl 0x00)(ty   0)(scl   3) (nx 0) 0x000000000000d938 .text
[1400](sec  3)(fl 0x00)(ty   0)(scl   3) (nx 0) 0x0000000000000000 .data
[1401](sec  3)(fl 0x00)(ty   0)(scl   3) (nx 0) 0x0000000000000008 .bss
[1402](sec  1)(fl 0x00)(ty   0)(scl   3) (nx 0) 0x000000000000d940 .text
[1403](sec  1)(fl 0x00)(ty  20)(scl   3) (nx 0) 0x000000000000d940 _ZN4core4char7methods15encode_utf8_raw17h3bcbb9e073cd3c1dE
[1404](sec  1)(fl 0x00)(ty   0)(scl   3) (nx 0) 0x000000000000de70 .text
[1405](sec  1)(fl 0x00)(ty  20)(scl   3) (nx 0) 0x000000000000de70 _ZN4core4char7methods16encode_utf16_raw17h866c9244ecd48f27E
[1406](sec  1)(fl 0x00)(ty   0)(scl   3) (nx 0) 0x000000000000e2a0 .text
[1407](sec  1)(fl 0x00)(ty   0)(scl   3) (nx 0) 0x000000000000e2f0 .text
[1408](sec  1)(fl 0x00)(ty   0)(scl   3) (nx 0) 0x000000000000e320 .text
[1409](sec  1)(fl 0x00)(ty  20)(scl   2) (nx 0) 0x000000000000e320 _ZN4core4char7methods22_$LT$impl$u20$char$GT$8from_u3217hd59fb0d8c2523ec9E
[1410](sec  1)(fl 0x00)(ty   0)(scl   3) (nx 0) 0x000000000000e340 .text
[1411](sec  1)(fl 0x00)(ty  20)(scl   3) (nx 0) 0x000000000000e340 _ZN4core4char7methods22_$LT$impl$u20$char$GT$9len_utf1617hb71e48facaa0c0e5E
[1412](sec  1)(fl 0x00)(ty   0)(scl   3) (nx 0) 0x000000000000e380 .text
[1413](sec  1)(fl 0x00)(ty  20)(scl   3) (nx 0) 0x000000000000e380 _ZN4core4char7methods8len_utf817h0b372f789dc34ce0E
[1414](sec  2)(fl 0x00)(ty   0)(scl   3) (nx 0) 0x0000000000002690 .rdata
[1415](sec  2)(fl 0x00)(ty   0)(scl   3) (nx 0) 0x0000000000002690 __unnamed_8
[1416](sec  2)(fl 0x00)(ty   0)(scl   3) (nx 0) 0x0000000000002708 .rdata
[1417](sec  2)(fl 0x00)(ty   0)(scl   3) (nx 0) 0x0000000000002708 __unnamed_1
[1418](sec  2)(fl 0x00)(ty   0)(scl   3) (nx 0) 0x0000000000002720 .rdata
[1419](sec  2)(fl 0x00)(ty   0)(scl   3) (nx 0) 0x0000000000002720 __unnamed_2
[1420](sec  2)(fl 0x00)(ty   0)(scl   3) (nx 0) 0x0000000000002738 .rdata
[1421](sec  2)(fl 0x00)(ty   0)(scl   3) (nx 0) 0x0000000000002738 __unnamed_9
[1422](sec  2)(fl 0x00)(ty   0)(scl   3) (nx 0) 0x000000000000274a .rdata
[1423](sec  2)(fl 0x00)(ty   0)(scl   3) (nx 0) 0x000000000000274a __unnamed_10
[1424](sec  2)(fl 0x00)(ty   0)(scl   3) (nx 0) 0x000000000000275d .rdata
[1425](sec  2)(fl 0x00)(ty   0)(scl   3) (nx 0) 0x000000000000275d __unnamed_11
[1426](sec  2)(fl 0x00)(ty   0)(scl   3) (nx 0) 0x0000000000002778 .rdata
[1427](sec  2)(fl 0x00)(ty   0)(scl   3) (nx 0) 0x0000000000002778 __unnamed_3
[1428](sec  2)(fl 0x00)(ty   0)(scl   3) (nx 0) 0x00000000000027a8 .rdata
[1429](sec  2)(fl 0x00)(ty   0)(scl   3) (nx 0) 0x00000000000027a8 __unnamed_4
[1430](sec  2)(fl 0x00)(ty   0)(scl   3) (nx 0) 0x00000000000027c0 .rdata
[1431](sec  2)(fl 0x00)(ty   0)(scl   3) (nx 0) 0x00000000000027c0 __unnamed_5
[1432](sec  2)(fl 0x00)(ty   0)(scl   3) (nx 0) 0x00000000000027e0 .rdata
[1433](sec  2)(fl 0x00)(ty   0)(scl   3) (nx 0) 0x00000000000027e0 str.0
[1434](sec  2)(fl 0x00)(ty   0)(scl   3) (nx 0) 0x0000000000002801 .rdata
[1435](sec  2)(fl 0x00)(ty   0)(scl   3) (nx 0) 0x0000000000002801 __unnamed_12
[1436](sec  2)(fl 0x00)(ty   0)(scl   3) (nx 0) 0x0000000000002814 .rdata
[1437](sec  2)(fl 0x00)(ty   0)(scl   3) (nx 0) 0x0000000000002814 __unnamed_13
[1438](sec  2)(fl 0x00)(ty   0)(scl   3) (nx 0) 0x0000000000002828 .rdata
[1439](sec  2)(fl 0x00)(ty   0)(scl   3) (nx 0) 0x0000000000002828 __unnamed_6
[1440](sec  2)(fl 0x00)(ty   0)(scl   3) (nx 0) 0x0000000000002858 .rdata
[1441](sec  2)(fl 0x00)(ty   0)(scl   3) (nx 0) 0x0000000000002858 __unnamed_7
[1442](sec  1)(fl 0x00)(ty  20)(scl   2) (nx 0) 0x00000000000137d0 _ZN4core5slice3raw18from_raw_parts_mut17hb936499b6d7451faE
[1443](sec  1)(fl 0x00)(ty  20)(scl   2) (nx 0) 0x0000000000013890 _ZN4core4char7convert18from_u32_unchecked17ha44fd3254fede0dcE
[1444](sec  1)(fl 0x00)(ty  20)(scl   2) (nx 0) 0x0000000000013970 _ZN4core3str8converts23from_utf8_unchecked_mut17h90852cbc2ea897d4E
[1445](sec  1)(fl 0x00)(ty  20)(scl   2) (nx 0) 0x0000000000013940 _ZN4core4char7convert8from_u3217hb29177ff60b2e3bcE
[1446](sec  1)(fl 0x00)(ty   0)(scl   3) (nx 0) 0x000000000000e3e4 .text
[1447](sec  3)(fl 0x00)(ty   0)(scl   3) (nx 0) 0x0000000000000000 .data
[1448](sec  3)(fl 0x00)(ty   0)(scl   3) (nx 0) 0x0000000000000008 .bss
[1449](sec  1)(fl 0x00)(ty   0)(scl   3) (nx 0) 0x000000000000e3f0 .text
[1450](sec  1)(fl 0x00)(ty  20)(scl   2) (nx 0) 0x000000000000e3f0 _ZN4core3ptr7mut_ptr31_$LT$impl$u20$$BP$mut$u20$T$GT$7is_null17hc06a085bd8a9e32aE
[1451](sec  1)(fl 0x00)(ty   0)(scl   3) (nx 0) 0x000000000000e420 .text
[1452](sec  1)(fl 0x00)(ty  20)(scl   2) (nx 0) 0x000000000000e420 _ZN4core3ptr7mut_ptr31_$LT$impl$u20$$BP$mut$u20$T$GT$7is_null17hcc8eeedea10b7b54E
[1453](sec  1)(fl 0x00)(ty   0)(scl   3) (nx 0) 0x000000000000e450 .text
[1454](sec  1)(fl 0x00)(ty   0)(scl   3) (nx 0) 0x000000000000e480 .text
[1455](sec  1)(fl 0x00)(ty  20)(scl   2) (nx 0) 0x000000000000e480 _ZN4core3cmp5impls69_$LT$impl$u20$core..cmp..PartialEq$LT$$RF$B$GT$$u20$for$u20$$RF$A$GT$2eq17h2e6c81055377e137E
[1456](sec  1)(fl 0x00)(ty   0)(scl   3) (nx 0) 0x000000000000e4c0 .text
[1457](sec  1)(fl 0x00)(ty   0)(scl   3) (nx 0) 0x000000000000e5f0 .text
[1458](sec  1)(fl 0x00)(ty  20)(scl   2) (nx 0) 0x000000000000e5f0 _ZN4core4iter8adapters6filter19Filter$LT$I$C$P$GT$3new17h8038d132bf428b49E
[1459](sec  1)(fl 0x00)(ty   0)(scl   3) (nx 0) 0x000000000000e620 .text
[1460](sec  1)(fl 0x00)(ty   0)(scl   3) (nx 0) 0x000000000000e680 .text
[1461](sec  1)(fl 0x00)(ty  20)(scl   2) (nx 0) 0x000000000000e680 _ZN108_$LT$core..iter..adapters..filter..Filter$LT$I$C$P$GT$$u20$as$u20$core..iter..traits..iterator..Iterator$GT$5count8to_usize17h08c12245da4a9c6cE
[1462](sec  1)(fl 0x00)(ty   0)(scl   3) (nx 0) 0x000000000000e690 .text
[1463](sec  1)(fl 0x00)(ty  20)(scl   2) (nx 0) 0x000000000000e690 _ZN108_$LT$core..iter..adapters..filter..Filter$LT$I$C$P$GT$$u20$as$u20$core..iter..traits..iterator..Iterator$GT$5count8to_usize28_$u7b$$u7b$closure$u7d$$u7d$17h5d57cbfae57b9088E
[1464](sec  1)(fl 0x00)(ty   0)(scl   3) (nx 0) 0x000000000000e6d0 .text
[1465](sec  1)(fl 0x00)(ty  20)(scl   2) (nx 0) 0x000000000000e6d0 _ZN89_$LT$core..ops..range..Range$LT$T$GT$$u20$as$u20$core..iter..range..RangeIteratorImpl$GT$9spec_next17h726e4044e422a364E
[1466](sec  1)(fl 0x00)(ty   0)(scl   3) (nx 0) 0x000000000000e770 .text
[1467](sec  1)(fl 0x00)(ty   0)(scl   3) (nx 0) 0x000000000000e7a0 .text
[1468](sec  1)(fl 0x00)(ty   0)(scl   3) (nx 0) 0x000000000000e7c0 .text
[1469](sec  1)(fl 0x00)(ty   0)(scl   3) (nx 0) 0x000000000000e880 .text
[1470](sec  1)(fl 0x00)(ty  20)(scl   2) (nx 0) 0x000000000000e880 _ZN106_$LT$core..ops..range..Range$LT$usize$GT$$u20$as$u20$core..slice..index..SliceIndex$LT$$u5b$T$u5d$$GT$$GT$13get_unchecked17h00ad588ec1c4fcf3E
[1471](sec  1)(fl 0x00)(ty   0)(scl   3) (nx 0) 0x000000000000e980 .text
[1472](sec  1)(fl 0x00)(ty  20)(scl   2) (nx 0) 0x000000000000e980 _ZN106_$LT$core..ops..range..Range$LT$usize$GT$$u20$as$u20$core..slice..index..SliceIndex$LT$$u5b$T$u5d$$GT$$GT$13get_unchecked17h73ffca8b5418e09bE
[1473](sec  1)(fl 0x00)(ty   0)(scl   3) (nx 0) 0x000000000000ea80 .text
[1474](sec  1)(fl 0x00)(ty  20)(scl   2) (nx 0) 0x000000000000ea80 _ZN106_$LT$core..ops..range..Range$LT$usize$GT$$u20$as$u20$core..slice..index..SliceIndex$LT$$u5b$T$u5d$$GT$$GT$17get_unchecked_mut17h7934331bdbe9c4e4E
[1475](sec  1)(fl 0x00)(ty   0)(scl   3) (nx 0) 0x000000000000eb60 .text
[1476](sec  1)(fl 0x00)(ty  20)(scl   2) (nx 0) 0x000000000000eb60 _ZN106_$LT$core..ops..range..Range$LT$usize$GT$$u20$as$u20$core..slice..index..SliceIndex$LT$$u5b$T$u5d$$GT$$GT$5index17hef9522f65961b232E
[1477](sec  1)(fl 0x00)(ty   0)(scl   3) (nx 0) 0x000000000000ec10 .text
[1478](sec  1)(fl 0x00)(ty  20)(scl   2) (nx 0) 0x000000000000ec10 _ZN106_$LT$core..ops..range..Range$LT$usize$GT$$u20$as$u20$core..slice..index..SliceIndex$LT$$u5b$T$u5d$$GT$$GT$9index_mut17h7dc73ffbfcd0a91bE
[1479](sec  1)(fl 0x00)(ty   0)(scl   3) (nx 0) 0x000000000000ecc0 .text
[1480](sec  1)(fl 0x00)(ty  20)(scl   2) (nx 0) 0x000000000000ecc0 _ZN108_$LT$core..ops..range..RangeTo$LT$usize$GT$$u20$as$u20$core..slice..index..SliceIndex$LT$$u5b$T$u5d$$GT$$GT$5index17h43027fb655eb1196E
[1481](sec  1)(fl 0x00)(ty   0)(scl   3) (nx 0) 0x000000000000ed20 .text
[1482](sec  1)(fl 0x00)(ty  20)(scl   2) (nx 0) 0x000000000000ed20 _ZN108_$LT$core..ops..range..RangeTo$LT$usize$GT$$u20$as$u20$core..slice..index..SliceIndex$LT$$u5b$T$u5d$$GT$$GT$9index_mut17hc0937cdb728bc6b6E
[1483](sec  1)(fl 0x00)(ty   0)(scl   3) (nx 0) 0x000000000000ed80 .text
[1484](sec  1)(fl 0x00)(ty  20)(scl   2) (nx 0) 0x000000000000ed80 _ZN110_$LT$core..ops..range..RangeFrom$LT$usize$GT$$u20$as$u20$core..slice..index..SliceIndex$LT$$u5b$T$u5d$$GT$$GT$13get_unchecked17h178e17a3db9648a2E
[1485](sec  1)(fl 0x00)(ty   0)(scl   3) (nx 0) 0x000000000000ee10 .text
[1486](sec  1)(fl 0x00)(ty   0)(scl   3) (nx 0) 0x000000000000eea0 .text
[1487](sec  1)(fl 0x00)(ty  20)(scl   2) (nx 0) 0x000000000000eea0 _ZN110_$LT$core..ops..range..RangeFrom$LT$usize$GT$$u20$as$u20$core..slice..index..SliceIndex$LT$$u5b$T$u5d$$GT$$GT$5index17h4eaf666bd35f40e9E
[1488](sec  1)(fl 0x00)(ty   0)(scl   3) (nx 0) 0x000000000000ef20 .text
[1489](sec  1)(fl 0x00)(ty   0)(scl   3) (nx 0) 0x000000000000efa0 .text
[1490](sec  1)(fl 0x00)(ty  20)(scl   2) (nx 0) 0x000000000000efa0 _ZN97_$LT$core..ops..range..RangeFull$u20$as$u20$core..slice..index..SliceIndex$LT$$u5b$T$u5d$$GT$$GT$9index_mut17hb6a7ab1d117caaf1E
[1491](sec  1)(fl 0x00)(ty   0)(scl   3) (nx 0) 0x000000000000efc0 .text
[1492](sec  1)(fl 0x00)(ty   0)(scl   3) (nx 0) 0x000000000000f060 .text
[1493](sec  1)(fl 0x00)(ty  20)(scl   3) (nx 0) 0x000000000000f060 _ZN4core3str6traits110_$LT$impl$u20$core..slice..index..SliceIndex$LT$str$GT$$u20$for$u20$core..ops..range..RangeTo$LT$usize$GT$$GT$13get_unchecked17h96484793e888996dE
[1494](sec  1)(fl 0x00)(ty   0)(scl   3) (nx 0) 0x000000000000f0e0 .text
[1495](sec  1)(fl 0x00)(ty  20)(scl   2) (nx 0) 0x000000000000f0e0 _ZN4core3str6traits110_$LT$impl$u20$core..slice..index..SliceIndex$LT$str$GT$$u20$for$u20$core..ops..range..RangeTo$LT$usize$GT$$GT$5index17h7b3a2cb8c225411eE
[1496](sec  1)(fl 0x00)(ty   0)(scl   3) (nx 0) 0x000000000000f180 .text
[1497](sec  1)(fl 0x00)(ty  20)(scl   3) (nx 0) 0x000000000000f180 _ZN4core3str6traits112_$LT$impl$u20$core..slice..index..SliceIndex$LT$str$GT$$u20$for$u20$core..ops..range..RangeFrom$LT$usize$GT$$GT$3get17h8576f10c11ead7c4E
[1498](sec  1)(fl 0x00)(ty   0)(scl   3) (nx 0) 0x000000000000f220 .text
[1499](sec  1)(fl 0x00)(ty  20)(scl   3) (nx 0) 0x000000000000f220 _ZN4core3str6traits112_$LT$impl$u20$core..slice..index..SliceIndex$LT$str$GT$$u20$for$u20$core..ops..range..RangeFrom$LT$usize$GT$$GT$13get_unchecked17h32874064bf815507E
[1500](sec  1)(fl 0x00)(ty   0)(scl   3) (nx 0) 0x000000000000f340 .text
[1501](sec  1)(fl 0x00)(ty  20)(scl   2) (nx 0) 0x000000000000f340 _ZN4core3str6traits112_$LT$impl$u20$core..slice..index..SliceIndex$LT$str$GT$$u20$for$u20$core..ops..range..RangeFrom$LT$usize$GT$$GT$5index17h1dd4cdc765b1d399E
[1502](sec  1)(fl 0x00)(ty   0)(scl   3) (nx 0) 0x000000000000f440 .text
[1503](sec  1)(fl 0x00)(ty   0)(scl   3) (nx 0) 0x000000000000f460 .text
[1504](sec  1)(fl 0x00)(ty   0)(scl   3) (nx 0) 0x000000000000f480 .text
[1505](sec  1)(fl 0x00)(ty   0)(scl   3) (nx 0) 0x000000000000f4a0 .text
[1506](sec  1)(fl 0x00)(ty  20)(scl   3) (nx 0) 0x000000000000f4a0 _ZN4core3cmp5impls57_$LT$impl$u20$core..cmp..PartialOrd$u20$for$u20$usize$GT$2lt17hae1b07151685b77dE
[1507](sec  1)(fl 0x00)(ty   0)(scl   3) (nx 0) 0x000000000000f4c0 .text
[1508](sec  1)(fl 0x00)(ty   0)(scl   3) (nx 0) 0x000000000000f4e0 .text
[1509](sec  1)(fl 0x00)(ty   0)(scl   3) (nx 0) 0x000000000000f530 .text
[1510](sec  1)(fl 0x00)(ty   0)(scl   3) (nx 0) 0x000000000000f550 .text
[1511](sec  1)(fl 0x00)(ty   0)(scl   3) (nx 0) 0x000000000000f5a0 .text
[1512](sec  1)(fl 0x00)(ty   0)(scl   3) (nx 0) 0x000000000000f5c0 .text
[1513](sec  1)(fl 0x00)(ty   0)(scl   3) (nx 0) 0x000000000000f610 .text
[1514](sec  1)(fl 0x00)(ty   0)(scl   3) (nx 0) 0x000000000000f650 .text
[1515](sec  1)(fl 0x00)(ty   0)(scl   3) (nx 0) 0x000000000000f6a0 .text
[1516](sec  1)(fl 0x00)(ty   0)(scl   3) (nx 0) 0x000000000000f700 .text
[1517](sec  1)(fl 0x00)(ty   0)(scl   3) (nx 0) 0x000000000000f750 .text
[1518](sec  1)(fl 0x00)(ty   0)(scl   3) (nx 0) 0x000000000000f7b0 .text
[1519](sec  1)(fl 0x00)(ty   0)(scl   3) (nx 0) 0x000000000000f810 .text
[1520](sec  1)(fl 0x00)(ty   0)(scl   3) (nx 0) 0x000000000000f860 .text
[1521](sec  1)(fl 0x00)(ty   0)(scl   3) (nx 0) 0x000000000000f8c0 .text
[1522](sec  1)(fl 0x00)(ty  20)(scl   3) (nx 0) 0x000000000000f8c0 _ZN4core3fmt3num3imp7fmt_u6417hecd5096dd68e7883E
[1523](sec  1)(fl 0x00)(ty   0)(scl   3) (nx 0) 0x0000000000010110 .text
[1524](sec  1)(fl 0x00)(ty   0)(scl   3) (nx 0) 0x00000000000101b0 .text
[1525](sec  1)(fl 0x00)(ty   0)(scl   3) (nx 0) 0x0000000000010250 .text
[1526](sec  2)(fl 0x00)(ty   0)(scl   3) (nx 0) 0x0000000000002870 .rdata
[1527](sec  2)(fl 0x00)(ty   0)(scl   3) (nx 0) 0x0000000000002870 str.0
[1528](sec  2)(fl 0x00)(ty   0)(scl   3) (nx 0) 0x00000000000028a0 .rdata
[1529](sec  2)(fl 0x00)(ty   0)(scl   3) (nx 0) 0x00000000000028a0 str.1
[1530](sec  2)(fl 0x00)(ty   0)(scl   3) (nx 0) 0x00000000000028bc .rdata
[1531](sec  2)(fl 0x00)(ty   0)(scl   3) (nx 0) 0x00000000000028bc __unnamed_103
[1532](sec  2)(fl 0x00)(ty   0)(scl   3) (nx 0) 0x00000000000028c0 .rdata
[1533](sec  2)(fl 0x00)(ty   0)(scl   3) (nx 0) 0x00000000000028c0 __unnamed_31
[1534](sec  2)(fl 0x00)(ty   0)(scl   3) (nx 0) 0x00000000000028d0 .rdata
[1535](sec  2)(fl 0x00)(ty   0)(scl   3) (nx 0) 0x00000000000028d0 __unnamed_32
[1536](sec  2)(fl 0x00)(ty   0)(scl   3) (nx 0) 0x00000000000028d0 .rdata
[1537](sec  2)(fl 0x00)(ty   0)(scl   3) (nx 0) 0x00000000000028d0 __unnamed_104
[1538](sec  2)(fl 0x00)(ty   0)(scl   3) (nx 0) 0x0000000000002948 .rdata
[1539](sec  2)(fl 0x00)(ty   0)(scl   3) (nx 0) 0x0000000000002948 __unnamed_38
[1540](sec  2)(fl 0x00)(ty   0)(scl   3) (nx 0) 0x0000000000002960 .rdata
[1541](sec  2)(fl 0x00)(ty   0)(scl   3) (nx 0) 0x0000000000002960 __unnamed_39
[1542](sec  2)(fl 0x00)(ty   0)(scl   3) (nx 0) 0x0000000000002978 .rdata
[1543](sec  2)(fl 0x00)(ty   0)(scl   3) (nx 0) 0x0000000000002978 __unnamed_105
[1544](sec  2)(fl 0x00)(ty   0)(scl   3) (nx 0) 0x00000000000029f0 .rdata
[1545](sec  2)(fl 0x00)(ty   0)(scl   3) (nx 0) 0x00000000000029f0 __unnamed_41
[1546](sec  2)(fl 0x00)(ty   0)(scl   3) (nx 0) 0x0000000000002a08 .rdata
[1547](sec  2)(fl 0x00)(ty   0)(scl   3) (nx 0) 0x0000000000002a08 __unnamed_108
[1548](sec  2)(fl 0x00)(ty   0)(scl   3) (nx 0) 0x0000000000002a80 .rdata
[1549](sec  2)(fl 0x00)(ty   0)(scl   3) (nx 0) 0x0000000000002a80 __unnamed_76
[1550](sec  2)(fl 0x00)(ty   0)(scl   3) (nx 0) 0x0000000000002a98 .rdata
[1551](sec  2)(fl 0x00)(ty   0)(scl   3) (nx 0) 0x0000000000002a98 __unnamed_77
[1552](sec  2)(fl 0x00)(ty   0)(scl   3) (nx 0) 0x0000000000002ab0 .rdata
[1553](sec  2)(fl 0x00)(ty   0)(scl   3) (nx 0) 0x0000000000002ab0 str.4
[1554](sec  2)(fl 0x00)(ty   0)(scl   3) (nx 0) 0x0000000000002ad0 .rdata
[1555](sec  2)(fl 0x00)(ty   0)(scl   3) (nx 0) 0x0000000000002ad0 __unnamed_78
[1556](sec  2)(fl 0x00)(ty   0)(scl   3) (nx 0) 0x0000000000002af0 .rdata
[1557](sec  2)(fl 0x00)(ty   0)(scl   3) (nx 0) 0x0000000000002af0 str.5
[1558](sec  2)(fl 0x00)(ty   0)(scl   3) (nx 0) 0x0000000000002b29 .rdata
[1559](sec  2)(fl 0x00)(ty   0)(scl   3) (nx 0) 0x0000000000002b29 __unnamed_84
[1560](sec  2)(fl 0x00)(ty   0)(scl   3) (nx 0) 0x0000000000002b5c .rdata
[1561](sec  2)(fl 0x00)(ty   0)(scl   3) (nx 0) 0x0000000000002b5c __unnamed_109
[1562](sec  2)(fl 0x00)(ty   0)(scl   3) (nx 0) 0x0000000000002bd0 .rdata
[1563](sec  2)(fl 0x00)(ty   0)(scl   3) (nx 0) 0x0000000000002bd0 __unnamed_85
[1564](sec  2)(fl 0x00)(ty   0)(scl   3) (nx 0) 0x0000000000002bf0 .rdata
[1565](sec  2)(fl 0x00)(ty   0)(scl   3) (nx 0) 0x0000000000002bf0 str.6
[1566](sec  2)(fl 0x00)(ty   0)(scl   3) (nx 0) 0x0000000000002c10 .rdata
[1567](sec  2)(fl 0x00)(ty   0)(scl   3) (nx 0) 0x0000000000002c10 str.7
[1568](sec  1)(fl 0x00)(ty  20)(scl   2) (nx 0) 0x0000000000011210 _ZN4core5slice3cmp81_$LT$impl$u20$core..cmp..PartialEq$LT$$u5b$B$u5d$$GT$$u20$for$u20$$u5b$A$u5d$$GT$2eq17hc7076bbd788443a9E
[1569](sec  1)(fl 0x00)(ty  20)(scl   2) (nx 0) 0x0000000000011060 _ZN4core4iter6traits8iterator8Iterator3map17ha74dcfbd0ff1e4c1E
[1570](sec  1)(fl 0x00)(ty  20)(scl   2) (nx 0) 0x0000000000012e00 _ZN4core4iter6traits8iterator8Iterator3sum17h09e74bdf15c8af6bE
[1571](sec  1)(fl 0x00)(ty  20)(scl   2) (nx 0) 0x0000000000010630 _ZN4core3ptr9const_ptr43_$LT$impl$u20$$BP$const$u20$$u5b$T$u5d$$GT$6as_ptr17hd9824968b920a687E
[1572](sec  1)(fl 0x00)(ty  20)(scl   2) (nx 0) 0x00000000000105f0 _ZN4core3ptr9const_ptr43_$LT$impl$u20$$BP$const$u20$$u5b$T$u5d$$GT$6as_ptr17h0f6ecdffc368199eE
[1573](sec  1)(fl 0x00)(ty  20)(scl   2) (nx 0) 0x0000000000010b20 _ZN4core5slice5index22slice_index_order_fail17hde8e5a07f38bc78dE
[1574](sec  1)(fl 0x00)(ty  20)(scl   2) (nx 0) 0x0000000000010a20 _ZN4core5slice5index24slice_end_index_len_fail17h9f266ffb640e50f4E
[1575](sec  1)(fl 0x00)(ty  20)(scl   2) (nx 0) 0x00000000000105c0 _ZN4core3ptr9const_ptr43_$LT$impl$u20$$BP$const$u20$$u5b$T$u5d$$GT$3len17hb3bfeb5883dbf783E
[1576](sec  1)(fl 0x00)(ty  20)(scl   2) (nx 0) 0x0000000000010320 _ZN4core3ptr8metadata8metadata17hd457a9d02264375aE
[1577](sec  1)(fl 0x00)(ty  20)(scl   2) (nx 0) 0x0000000000010920 _ZN4core5slice5index26slice_start_index_len_fail17h1a6c86530c17ce95E
[1578](sec  1)(fl 0x00)(ty   0)(scl   3) (nx 0) 0x00000000000102ec .text
[1579](sec  3)(fl 0x00)(ty   0)(scl   3) (nx 0) 0x0000000000000000 .data
[1580](sec  3)(fl 0x00)(ty   0)(scl   3) (nx 0) 0x0000000000000008 .bss
[1581](sec  1)(fl 0x00)(ty   0)(scl   3) (nx 0) 0x00000000000102f0 .text
[1582](sec  1)(fl 0x00)(ty   0)(scl   3) (nx 0) 0x0000000000010320 .text
[1583](sec  1)(fl 0x00)(ty   0)(scl   3) (nx 0) 0x0000000000010350 .text
[1584](sec  1)(fl 0x00)(ty   0)(scl   3) (nx 0) 0x0000000000010390 .text
[1585](sec  1)(fl 0x00)(ty   0)(scl   3) (nx 0) 0x00000000000103d0 .text
[1586](sec  1)(fl 0x00)(ty   0)(scl   3) (nx 0) 0x0000000000010410 .text
[1587](sec  1)(fl 0x00)(ty  20)(scl   2) (nx 0) 0x0000000000010410 _ZN4core3ptr9const_ptr33_$LT$impl$u20$$BP$const$u20$T$GT$7is_null17h1b2f5dd20595e1a7E
[1588](sec  1)(fl 0x00)(ty   0)(scl   3) (nx 0) 0x0000000000010440 .text
[1589](sec  1)(fl 0x00)(ty  20)(scl   2) (nx 0) 0x0000000000010440 _ZN4core3ptr9const_ptr33_$LT$impl$u20$$BP$const$u20$T$GT$7is_null17hc8d6781623061b47E
[1590](sec  1)(fl 0x00)(ty   0)(scl   3) (nx 0) 0x0000000000010470 .text
[1591](sec  1)(fl 0x00)(ty  20)(scl   2) (nx 0) 0x0000000000010470 _ZN4core3ptr9const_ptr33_$LT$impl$u20$$BP$const$u20$T$GT$7is_null17hfe30dc1687523c05E
[1592](sec  1)(fl 0x00)(ty   0)(scl   3) (nx 0) 0x00000000000104a0 .text
[1593](sec  1)(fl 0x00)(ty   0)(scl   3) (nx 0) 0x00000000000104b0 .text
[1594](sec  1)(fl 0x00)(ty   0)(scl   3) (nx 0) 0x00000000000104e0 .text
[1595](sec  1)(fl 0x00)(ty   0)(scl   3) (nx 0) 0x00000000000105c0 .text
[1596](sec  1)(fl 0x00)(ty   0)(scl   3) (nx 0) 0x00000000000105f0 .text
[1597](sec  1)(fl 0x00)(ty   0)(scl   3) (nx 0) 0x0000000000010610 .text
[1598](sec  1)(fl 0x00)(ty  20)(scl   2) (nx 0) 0x0000000000010610 _ZN4core3ptr9const_ptr43_$LT$impl$u20$$BP$const$u20$$u5b$T$u5d$$GT$6as_ptr17hb37a910536be466bE
[1599](sec  1)(fl 0x00)(ty   0)(scl   3) (nx 0) 0x0000000000010630 .text
[1600](sec  1)(fl 0x00)(ty   0)(scl   3) (nx 0) 0x0000000000010650 .text
[1601](sec  1)(fl 0x00)(ty   0)(scl   3) (nx 0) 0x0000000000010710 .text
[1602](sec  1)(fl 0x00)(ty  20)(scl   3) (nx 0) 0x0000000000010710 _ZN54_$LT$u32$u20$as$u20$core..ops..bit..Shl$LT$i32$GT$$GT$3shl17h789db2f500133092E
[1603](sec  1)(fl 0x00)(ty   0)(scl   3) (nx 0) 0x0000000000010770 .text
[1604](sec  2)(fl 0x00)(ty   0)(scl   3) (nx 0) 0x0000000000002c40 .rdata
[1605](sec  2)(fl 0x00)(ty   0)(scl   3) (nx 0) 0x0000000000002c40 str.6
[1606](sec  2)(fl 0x00)(ty   0)(scl   3) (nx 0) 0x0000000000002c63 .rdata
[1607](sec  2)(fl 0x00)(ty   0)(scl   3) (nx 0) 0x0000000000002c63 __unnamed_145
[1608](sec  2)(fl 0x00)(ty   0)(scl   3) (nx 0) 0x0000000000002c8c .rdata
[1609](sec  2)(fl 0x00)(ty   0)(scl   3) (nx 0) 0x0000000000002c8c __unnamed_195
[1610](sec  2)(fl 0x00)(ty   0)(scl   3) (nx 0) 0x0000000000002d08 .rdata
[1611](sec  2)(fl 0x00)(ty   0)(scl   3) (nx 0) 0x0000000000002d08 __unnamed_146
[1612](sec  2)(fl 0x00)(ty   0)(scl   3) (nx 0) 0x0000000000002d20 .rdata
[1613](sec  2)(fl 0x00)(ty   0)(scl   3) (nx 0) 0x0000000000002d20 __unnamed_152
[1614](sec  2)(fl 0x00)(ty   0)(scl   3) (nx 0) 0x0000000000002d49 .rdata
[1615](sec  2)(fl 0x00)(ty   0)(scl   3) (nx 0) 0x0000000000002d49 __unnamed_198
[1616](sec  2)(fl 0x00)(ty   0)(scl   3) (nx 0) 0x0000000000002dc0 .rdata
[1617](sec  2)(fl 0x00)(ty   0)(scl   3) (nx 0) 0x0000000000002dc0 __unnamed_153
[1618](sec  2)(fl 0x00)(ty   0)(scl   3) (nx 0) 0x0000000000002dd8 .rdata
[1619](sec  2)(fl 0x00)(ty   0)(scl   3) (nx 0) 0x0000000000002dd8 __unnamed_154
[1620](sec  2)(fl 0x00)(ty   0)(scl   3) (nx 0) 0x0000000000002e18 .rdata
[1621](sec  2)(fl 0x00)(ty   0)(scl   3) (nx 0) 0x0000000000002e18 __unnamed_155
[1622](sec  2)(fl 0x00)(ty   0)(scl   3) (nx 0) 0x0000000000002e30 .rdata
[1623](sec  2)(fl 0x00)(ty   0)(scl   3) (nx 0) 0x0000000000002e30 __unnamed_201
[1624](sec  2)(fl 0x00)(ty   0)(scl   3) (nx 0) 0x0000000000002ea8 .rdata
[1625](sec  2)(fl 0x00)(ty   0)(scl   3) (nx 0) 0x0000000000002ea8 __unnamed_180
[1626](sec  1)(fl 0x00)(ty  20)(scl   2) (nx 0) 0x0000000000012fb0 _ZN4core3num23_$LT$impl$u20$usize$GT$14saturating_mul17hb5c6ee243f533b5bE
[1627](sec  1)(fl 0x00)(ty  20)(scl   2) (nx 0) 0x0000000000012a10 _ZN4core10intrinsics23is_aligned_and_not_null17h82abcff6014f5309E
[1628](sec  1)(fl 0x00)(ty   0)(scl   3) (nx 0) 0x0000000000010794 .text
[1629](sec  3)(fl 0x00)(ty   0)(scl   3) (nx 0) 0x0000000000000000 .data
[1630](sec  3)(fl 0x00)(ty   0)(scl   3) (nx 0) 0x0000000000000008 .bss
[1631](sec  1)(fl 0x00)(ty   0)(scl   3) (nx 0) 0x00000000000107a0 .text
[1632](sec  1)(fl 0x00)(ty   0)(scl   3) (nx 0) 0x00000000000107f0 .text
[1633](sec  1)(fl 0x00)(ty   0)(scl   3) (nx 0) 0x0000000000010850 .text
[1634](sec  1)(fl 0x00)(ty   0)(scl   3) (nx 0) 0x00000000000108a0 .text
[1635](sec  1)(fl 0x00)(ty   0)(scl   3) (nx 0) 0x00000000000108f0 .text
[1636](sec  1)(fl 0x00)(ty   0)(scl   3) (nx 0) 0x0000000000010920 .text
[1637](sec  1)(fl 0x00)(ty   0)(scl   3) (nx 0) 0x0000000000010a20 .text
[1638](sec  1)(fl 0x00)(ty   0)(scl   3) (nx 0) 0x0000000000010b20 .text
[1639](sec  1)(fl 0x00)(ty   0)(scl   3) (nx 0) 0x0000000000010c20 .text
[1640](sec  1)(fl 0x00)(ty   0)(scl   3) (nx 0) 0x0000000000010c80 .text
[1641](sec  1)(fl 0x00)(ty   0)(scl   3) (nx 0) 0x0000000000010ce0 .text
[1642](sec  1)(fl 0x00)(ty   0)(scl   3) (nx 0) 0x0000000000010d40 .text
[1643](sec  1)(fl 0x00)(ty   0)(scl   3) (nx 0) 0x0000000000010dd0 .text
[1644](sec  1)(fl 0x00)(ty   0)(scl   3) (nx 0) 0x0000000000010e60 .text
[1645](sec  1)(fl 0x00)(ty   0)(scl   3) (nx 0) 0x0000000000010ef0 .text
[1646](sec  2)(fl 0x00)(ty   0)(scl   3) (nx 0) 0x0000000000002ec0 .rdata
[1647](sec  2)(fl 0x00)(ty   0)(scl   3) (nx 0) 0x0000000000002ec0 __unnamed_106
[1648](sec  2)(fl 0x00)(ty   0)(scl   3) (nx 0) 0x0000000000002ed2 .rdata
[1649](sec  2)(fl 0x00)(ty   0)(scl   3) (nx 0) 0x0000000000002ed2 __unnamed_107
[1650](sec  2)(fl 0x00)(ty   0)(scl   3) (nx 0) 0x0000000000002ef8 .rdata
[1651](sec  2)(fl 0x00)(ty   0)(scl   3) (nx 0) 0x0000000000002ef8 __unnamed_19
[1652](sec  2)(fl 0x00)(ty   0)(scl   3) (nx 0) 0x0000000000002f18 .rdata
[1653](sec  2)(fl 0x00)(ty   0)(scl   3) (nx 0) 0x0000000000002f18 __unnamed_108
[1654](sec  2)(fl 0x00)(ty   0)(scl   3) (nx 0) 0x0000000000002f28 .rdata
[1655](sec  2)(fl 0x00)(ty   0)(scl   3) (nx 0) 0x0000000000002f28 __unnamed_20
[1656](sec  2)(fl 0x00)(ty   0)(scl   3) (nx 0) 0x0000000000002f48 .rdata
[1657](sec  2)(fl 0x00)(ty   0)(scl   3) (nx 0) 0x0000000000002f48 __unnamed_109
[1658](sec  2)(fl 0x00)(ty   0)(scl   3) (nx 0) 0x0000000000002f5e .rdata
[1659](sec  2)(fl 0x00)(ty   0)(scl   3) (nx 0) 0x0000000000002f5e __unnamed_110
[1660](sec  2)(fl 0x00)(ty   0)(scl   3) (nx 0) 0x0000000000002f70 .rdata
[1661](sec  2)(fl 0x00)(ty   0)(scl   3) (nx 0) 0x0000000000002f70 __unnamed_21
[1662](sec  1)(fl 0x00)(ty  20)(scl   2) (nx 0) 0x0000000000012ac0 _ZN4core5array85_$LT$impl$u20$core..ops..index..Index$LT$I$GT$$u20$for$u20$$u5b$T$u3b$$u20$N$u5d$$GT$5index17h807d221b0874f023E
[1663](sec  1)(fl 0x00)(ty   0)(scl   3) (nx 0) 0x0000000000010f74 .text
[1664](sec  3)(fl 0x00)(ty   0)(scl   3) (nx 0) 0x0000000000000000 .data
[1665](sec  3)(fl 0x00)(ty   0)(scl   3) (nx 0) 0x0000000000000008 .bss
[1666](sec  1)(fl 0x00)(ty   0)(scl   3) (nx 0) 0x0000000000010f74 .text
[1667](sec  3)(fl 0x00)(ty   0)(scl   3) (nx 0) 0x0000000000000000 .data
[1668](sec  3)(fl 0x00)(ty   0)(scl   3) (nx 0) 0x0000000000000008 .bss
[1669](sec  1)(fl 0x00)(ty   0)(scl   3) (nx 0) 0x0000000000010f74 .text
[1670](sec  3)(fl 0x00)(ty   0)(scl   3) (nx 0) 0x0000000000000000 .data
[1671](sec  3)(fl 0x00)(ty   0)(scl   3) (nx 0) 0x0000000000000008 .bss
[1672](sec  1)(fl 0x00)(ty   0)(scl   3) (nx 0) 0x0000000000010f74 .text
[1673](sec  3)(fl 0x00)(ty   0)(scl   3) (nx 0) 0x0000000000000000 .data
[1674](sec  3)(fl 0x00)(ty   0)(scl   3) (nx 0) 0x0000000000000008 .bss
[1675](sec  1)(fl 0x00)(ty   0)(scl   3) (nx 0) 0x0000000000010f80 .text
[1676](sec  1)(fl 0x00)(ty  20)(scl   2) (nx 0) 0x0000000000010f80 _ZN4core4iter8adapters6cloned15Cloned$LT$I$GT$3new17h13b2ba2fb85ffe6eE
[1677](sec  1)(fl 0x00)(ty   0)(scl   3) (nx 0) 0x0000000000010fb0 .text
[1678](sec  1)(fl 0x00)(ty   0)(scl   3) (nx 0) 0x0000000000010ff0 .text
[1679](sec  1)(fl 0x00)(ty  20)(scl   2) (nx 0) 0x0000000000010ff0 _ZN4core4iter8adapters3rev12Rev$LT$T$GT$3new17h6bb6fcb667f2e201E
[1680](sec  1)(fl 0x00)(ty   0)(scl   3) (nx 0) 0x0000000000011020 .text
[1681](sec  1)(fl 0x00)(ty   0)(scl   3) (nx 0) 0x0000000000011040 .text
[1682](sec  1)(fl 0x00)(ty   0)(scl   3) (nx 0) 0x0000000000011060 .text
[1683](sec  1)(fl 0x00)(ty   0)(scl   3) (nx 0) 0x0000000000011090 .text
[1684](sec  1)(fl 0x00)(ty   0)(scl   3) (nx 0) 0x00000000000110c0 .text
[1685](sec  1)(fl 0x00)(ty   0)(scl   3) (nx 0) 0x00000000000110f0 .text
[1686](sec  1)(fl 0x00)(ty   0)(scl   3) (nx 0) 0x0000000000011120 .text
[1687](sec  1)(fl 0x00)(ty  20)(scl   2) (nx 0) 0x0000000000011120 _ZN4core4iter6traits8iterator8Iterator4fold17hf25980d9a06c7f4bE
[1688](sec  1)(fl 0x00)(ty   0)(scl   3) (nx 0) 0x00000000000111b0 .text
[1689](sec  1)(fl 0x00)(ty   0)(scl   3) (nx 0) 0x00000000000111e0 .text
[1690](sec  1)(fl 0x00)(ty   0)(scl   3) (nx 0) 0x0000000000011210 .text
[1691](sec  1)(fl 0x00)(ty   0)(scl   3) (nx 0) 0x0000000000011240 .text
[1692](sec  1)(fl 0x00)(ty  20)(scl   2) (nx 0) 0x0000000000011240 _ZN73_$LT$$u5b$A$u5d$$u20$as$u20$core..slice..cmp..SlicePartialEq$LT$B$GT$$GT$5equal17h269b00610206f9c0E
[1693](sec  1)(fl 0x00)(ty   0)(scl   3) (nx 0) 0x0000000000011300 .text
[1694](sec  1)(fl 0x00)(ty   0)(scl   3) (nx 0) 0x0000000000011330 .text
[1695](sec  1)(fl 0x00)(ty   0)(scl   3) (nx 0) 0x0000000000011360 .text
[1696](sec  1)(fl 0x00)(ty   0)(scl   3) (nx 0) 0x0000000000011470 .text
[1697](sec  1)(fl 0x00)(ty   0)(scl   3) (nx 0) 0x0000000000011580 .text
[1698](sec  1)(fl 0x00)(ty   0)(scl   3) (nx 0) 0x0000000000011690 .text
[1699](sec  1)(fl 0x00)(ty   0)(scl   3) (nx 0) 0x00000000000117a0 .text
[1700](sec  1)(fl 0x00)(ty   0)(scl   3) (nx 0) 0x00000000000118b0 .text
[1701](sec  1)(fl 0x00)(ty   0)(scl   3) (nx 0) 0x0000000000011900 .text
[1702](sec  1)(fl 0x00)(ty   0)(scl   3) (nx 0) 0x0000000000011950 .text
[1703](sec  1)(fl 0x00)(ty   0)(scl   3) (nx 0) 0x0000000000011a70 .text
[1704](sec  1)(fl 0x00)(ty   0)(scl   3) (nx 0) 0x0000000000011b90 .text
[1705](sec  1)(fl 0x00)(ty   0)(scl   3) (nx 0) 0x0000000000011cb0 .text
[1706](sec  1)(fl 0x00)(ty   0)(scl   3) (nx 0) 0x0000000000011dd0 .text
[1707](sec  1)(fl 0x00)(ty   0)(scl   3) (nx 0) 0x0000000000011fd0 .text
[1708](sec  1)(fl 0x00)(ty   0)(scl   3) (nx 0) 0x00000000000121d0 .text
[1709](sec  1)(fl 0x00)(ty   0)(scl   3) (nx 0) 0x00000000000123d0 .text
[1710](sec  1)(fl 0x00)(ty  20)(scl   2) (nx 0) 0x00000000000123d0 _ZN109_$LT$core..slice..iter..IterMut$LT$T$GT$$u20$as$u20$core..iter..traits..double_ended..DoubleEndedIterator$GT$9next_back17hb7d13c7e046a3d85E
[1711](sec  1)(fl 0x00)(ty   0)(scl   3) (nx 0) 0x00000000000124f0 .text
[1712](sec  2)(fl 0x00)(ty   0)(scl   3) (nx 0) 0x0000000000002f90 .rdata
[1713](sec  2)(fl 0x00)(ty   0)(scl   3) (nx 0) 0x0000000000002f90 str.0
[1714](sec  2)(fl 0x00)(ty   0)(scl   3) (nx 0) 0x0000000000002fb0 .rdata
[1715](sec  2)(fl 0x00)(ty   0)(scl   3) (nx 0) 0x0000000000002fb0 str.1
[1716](sec  2)(fl 0x00)(ty   0)(scl   3) (nx 0) 0x0000000000002fe0 .rdata
[1717](sec  2)(fl 0x00)(ty   0)(scl   3) (nx 0) 0x0000000000002fe0 str.5
[1718](sec  2)(fl 0x00)(ty   0)(scl   3) (nx 0) 0x0000000000002fff .rdata
[1719](sec  2)(fl 0x00)(ty   0)(scl   3) (nx 0) 0x0000000000002fff __unnamed_121
[1720](sec  2)(fl 0x00)(ty   0)(scl   3) (nx 0) 0x0000000000003080 .rdata
[1721](sec  2)(fl 0x00)(ty   0)(scl   3) (nx 0) 0x0000000000003080 __unnamed_109
[1722](sec  2)(fl 0x00)(ty   0)(scl   3) (nx 0) 0x0000000000003098 .rdata
[1723](sec  2)(fl 0x00)(ty   0)(scl   3) (nx 0) 0x0000000000003098 __unnamed_110
[1724](sec  2)(fl 0x00)(ty   0)(scl   3) (nx 0) 0x00000000000030b0 .rdata
[1725](sec  2)(fl 0x00)(ty   0)(scl   3) (nx 0) 0x00000000000030b0 __unnamed_111
[1726](sec  2)(fl 0x00)(ty   0)(scl   3) (nx 0) 0x00000000000030c8 .rdata
[1727](sec  2)(fl 0x00)(ty   0)(scl   3) (nx 0) 0x00000000000030c8 __unnamed_112
[1728](sec  2)(fl 0x00)(ty   0)(scl   3) (nx 0) 0x00000000000030e0 .rdata
[1729](sec  2)(fl 0x00)(ty   0)(scl   3) (nx 0) 0x00000000000030e0 __unnamed_113
[1730](sec  2)(fl 0x00)(ty   0)(scl   3) (nx 0) 0x00000000000030f8 .rdata
[1731](sec  2)(fl 0x00)(ty   0)(scl   3) (nx 0) 0x00000000000030f8 __unnamed_114
[1732](sec  2)(fl 0x00)(ty   0)(scl   3) (nx 0) 0x0000000000003110 .rdata
[1733](sec  2)(fl 0x00)(ty   0)(scl   3) (nx 0) 0x0000000000003110 __unnamed_115
[1734](sec  2)(fl 0x00)(ty   0)(scl   3) (nx 0) 0x0000000000003128 .rdata
[1735](sec  2)(fl 0x00)(ty   0)(scl   3) (nx 0) 0x0000000000003128 __unnamed_116
[1736](sec  2)(fl 0x00)(ty   0)(scl   3) (nx 0) 0x0000000000003140 .rdata
[1737](sec  2)(fl 0x00)(ty   0)(scl   3) (nx 0) 0x0000000000003140 __unnamed_117
[1738](sec  2)(fl 0x00)(ty   0)(scl   3) (nx 0) 0x0000000000003158 .rdata
[1739](sec  2)(fl 0x00)(ty   0)(scl   3) (nx 0) 0x0000000000003158 __unnamed_118
[1740](sec  2)(fl 0x00)(ty   0)(scl   3) (nx 0) 0x0000000000003170 .rdata
[1741](sec  2)(fl 0x00)(ty   0)(scl   3) (nx 0) 0x0000000000003170 __unnamed_123
[1742](sec  2)(fl 0x00)(ty   0)(scl   3) (nx 0) 0x00000000000031e8 .rdata
[1743](sec  2)(fl 0x00)(ty   0)(scl   3) (nx 0) 0x00000000000031e8 __unnamed_107
[1744](sec  2)(fl 0x00)(ty   0)(scl   3) (nx 0) 0x0000000000003200 .rdata
[1745](sec  2)(fl 0x00)(ty   0)(scl   3) (nx 0) 0x0000000000003200 __unnamed_108
[1746](sec  2)(fl 0x00)(ty   0)(scl   3) (nx 0) 0x0000000000003218 .rdata
[1747](sec  2)(fl 0x00)(ty   0)(scl   3) (nx 0) 0x0000000000003218 _ZN4core7unicode12unicode_data15grapheme_extend17SHORT_OFFSET_RUNS17h58bda3d2af6d354fE
[1748](sec  2)(fl 0x00)(ty   0)(scl   3) (nx 0) 0x0000000000003298 .rdata
[1749](sec  2)(fl 0x00)(ty   0)(scl   3) (nx 0) 0x0000000000003298 _ZN4core7unicode12unicode_data15grapheme_extend7OFFSETS17h64c16c511866996bE
[1750](sec  1)(fl 0x00)(ty  20)(scl   2) (nx 0) 0x0000000000012d00 _ZN4core4iter8adapters3map16Map$LT$I$C$F$GT$3new17hb1c50e06f77c4cf3E
[1751](sec  1)(fl 0x00)(ty  20)(scl   2) (nx 0) 0x0000000000012d40 _ZN4core4iter8adapters3map8map_fold28_$u7b$$u7b$closure$u7d$$u7d$17h015840cd7e7b52c1E
[1752](sec  1)(fl 0x00)(ty   0)(scl   3) (nx 0) 0x0000000000012990 .text
[1753](sec  3)(fl 0x00)(ty   0)(scl   3) (nx 0) 0x0000000000000000 .data
[1754](sec  3)(fl 0x00)(ty   0)(scl   3) (nx 0) 0x0000000000000008 .bss
[1755](sec  1)(fl 0x00)(ty   0)(scl   3) (nx 0) 0x0000000000012990 .text
[1756](sec  1)(fl 0x00)(ty   0)(scl   3) (nx 0) 0x0000000000012a10 .text
[1757](sec  1)(fl 0x00)(ty   0)(scl   3) (nx 0) 0x0000000000012a90 .text
[1758](sec  1)(fl 0x00)(ty   0)(scl   3) (nx 0) 0x0000000000012ac0 .text
[1759](sec  1)(fl 0x00)(ty   0)(scl   3) (nx 0) 0x0000000000012b10 .text
[1760](sec  1)(fl 0x00)(ty   0)(scl   3) (nx 0) 0x0000000000012b40 .text
[1761](sec  1)(fl 0x00)(ty   0)(scl   3) (nx 0) 0x0000000000012b70 .text
[1762](sec  1)(fl 0x00)(ty  20)(scl   3) (nx 0) 0x0000000000012b70 _ZN4core4char7convert68_$LT$impl$u20$core..convert..TryFrom$LT$u32$GT$$u20$for$u20$char$GT$8try_from17h68306fcb65dc4e5bE
[1763](sec  1)(fl 0x00)(ty   0)(scl   3) (nx 0) 0x0000000000012bf0 .text
[1764](sec  1)(fl 0x00)(ty   0)(scl   3) (nx 0) 0x0000000000012d00 .text
[1765](sec  1)(fl 0x00)(ty   0)(scl   3) (nx 0) 0x0000000000012d30 .text
[1766](sec  1)(fl 0x00)(ty  20)(scl   2) (nx 0) 0x0000000000012d30 _ZN4core4iter8adapters3map8map_fold17h7ea63e76e461e31cE
[1767](sec  1)(fl 0x00)(ty   0)(scl   3) (nx 0) 0x0000000000012d40 .text
[1768](sec  1)(fl 0x00)(ty   0)(scl   3) (nx 0) 0x0000000000012db0 .text
[1769](sec  1)(fl 0x00)(ty   0)(scl   3) (nx 0) 0x0000000000012e00 .text
[1770](sec  2)(fl 0x00)(ty   0)(scl   3) (nx 0) 0x0000000000003560 .rdata
[1771](sec  2)(fl 0x00)(ty   0)(scl   3) (nx 0) 0x0000000000003560 str.0
[1772](sec  2)(fl 0x00)(ty   0)(scl   3) (nx 0) 0x000000000000357c .rdata
[1773](sec  2)(fl 0x00)(ty   0)(scl   3) (nx 0) 0x000000000000357c __unnamed_79
[1774](sec  2)(fl 0x00)(ty   0)(scl   3) (nx 0) 0x00000000000035f0 .rdata
[1775](sec  2)(fl 0x00)(ty   0)(scl   3) (nx 0) 0x00000000000035f0 __unnamed_9
[1776](sec  2)(fl 0x00)(ty   0)(scl   3) (nx 0) 0x0000000000003610 .rdata
[1777](sec  2)(fl 0x00)(ty   0)(scl   3) (nx 0) 0x0000000000003610 str.1
[1778](sec  2)(fl 0x00)(ty   0)(scl   3) (nx 0) 0x0000000000003649 .rdata
[1779](sec  2)(fl 0x00)(ty   0)(scl   3) (nx 0) 0x0000000000003649 __unnamed_81
[1780](sec  2)(fl 0x00)(ty   0)(scl   3) (nx 0) 0x00000000000036c0 .rdata
[1781](sec  2)(fl 0x00)(ty   0)(scl   3) (nx 0) 0x00000000000036c0 __unnamed_13
[1782](sec  2)(fl 0x00)(ty   0)(scl   3) (nx 0) 0x00000000000036d8 .rdata
[1783](sec  2)(fl 0x00)(ty   0)(scl   3) (nx 0) 0x00000000000036d8 __unnamed_17
[1784](sec  2)(fl 0x00)(ty   0)(scl   3) (nx 0) 0x0000000000003708 .rdata
[1785](sec  2)(fl 0x00)(ty   0)(scl   3) (nx 0) 0x0000000000003708 __unnamed_18
[1786](sec  2)(fl 0x00)(ty   0)(scl   3) (nx 0) 0x0000000000003720 .rdata
[1787](sec  2)(fl 0x00)(ty   0)(scl   3) (nx 0) 0x0000000000003720 __unnamed_19
[1788](sec  2)(fl 0x00)(ty   0)(scl   3) (nx 0) 0x0000000000003738 .rdata
[1789](sec  2)(fl 0x00)(ty   0)(scl   3) (nx 0) 0x0000000000003738 __unnamed_20
[1790](sec  2)(fl 0x00)(ty   0)(scl   3) (nx 0) 0x0000000000003750 .rdata
[1791](sec  2)(fl 0x00)(ty   0)(scl   3) (nx 0) 0x0000000000003750 __unnamed_21
[1792](sec  2)(fl 0x00)(ty   0)(scl   3) (nx 0) 0x0000000000003770 .rdata
[1793](sec  2)(fl 0x00)(ty   0)(scl   3) (nx 0) 0x0000000000003770 str.2
[1794](sec  1)(fl 0x00)(ty   0)(scl   3) (nx 0) 0x0000000000012e24 .text
[1795](sec  3)(fl 0x00)(ty   0)(scl   3) (nx 0) 0x0000000000000000 .data
[1796](sec  3)(fl 0x00)(ty   0)(scl   3) (nx 0) 0x0000000000000008 .bss
[1797](sec  1)(fl 0x00)(ty   0)(scl   3) (nx 0) 0x0000000000012e30 .text
[1798](sec  1)(fl 0x00)(ty   0)(scl   3) (nx 0) 0x0000000000012ef0 .text
[1799](sec  1)(fl 0x00)(ty  20)(scl   3) (nx 0) 0x0000000000012ef0 _ZN4core3num23_$LT$impl$u20$usize$GT$11checked_mul17h8d237e6e917f9d36E
[1800](sec  1)(fl 0x00)(ty   0)(scl   3) (nx 0) 0x0000000000012fb0 .text
[1801](sec  1)(fl 0x00)(ty   0)(scl   3) (nx 0) 0x0000000000013004 .text
[1802](sec  3)(fl 0x00)(ty   0)(scl   3) (nx 0) 0x0000000000000000 .data
[1803](sec  3)(fl 0x00)(ty   0)(scl   3) (nx 0) 0x0000000000000008 .bss
[1804](sec  1)(fl 0x00)(ty   0)(scl   3) (nx 0) 0x0000000000013010 .text
[1805](sec  1)(fl 0x00)(ty   0)(scl   3) (nx 0) 0x00000000000134c0 .text
[1806](sec  2)(fl 0x00)(ty   0)(scl   3) (nx 0) 0x0000000000003791 .rdata
[1807](sec  2)(fl 0x00)(ty   0)(scl   3) (nx 0) 0x0000000000003791 __unnamed_106
[1808](sec  2)(fl 0x00)(ty   0)(scl   3) (nx 0) 0x0000000000003808 .rdata
[1809](sec  2)(fl 0x00)(ty   0)(scl   3) (nx 0) 0x0000000000003808 __unnamed_1
[1810](sec  2)(fl 0x00)(ty   0)(scl   3) (nx 0) 0x0000000000003820 .rdata
[1811](sec  2)(fl 0x00)(ty   0)(scl   3) (nx 0) 0x0000000000003820 str.0
[1812](sec  2)(fl 0x00)(ty   0)(scl   3) (nx 0) 0x0000000000003848 .rdata
[1813](sec  2)(fl 0x00)(ty   0)(scl   3) (nx 0) 0x0000000000003848 __unnamed_2
[1814](sec  2)(fl 0x00)(ty   0)(scl   3) (nx 0) 0x0000000000003860 .rdata
[1815](sec  2)(fl 0x00)(ty   0)(scl   3) (nx 0) 0x0000000000003860 str.1
[1816](sec  2)(fl 0x00)(ty   0)(scl   3) (nx 0) 0x0000000000003880 .rdata
[1817](sec  2)(fl 0x00)(ty   0)(scl   3) (nx 0) 0x0000000000003880 __unnamed_3
[1818](sec  2)(fl 0x00)(ty   0)(scl   3) (nx 0) 0x0000000000003898 .rdata
[1819](sec  2)(fl 0x00)(ty   0)(scl   3) (nx 0) 0x0000000000003898 __unnamed_4
[1820](sec  2)(fl 0x00)(ty   0)(scl   3) (nx 0) 0x00000000000038b0 .rdata
[1821](sec  2)(fl 0x00)(ty   0)(scl   3) (nx 0) 0x00000000000038b0 __unnamed_5
[1822](sec  1)(fl 0x00)(ty   0)(scl   3) (nx 0) 0x00000000000135a8 .text
[1823](sec  3)(fl 0x00)(ty   0)(scl   3) (nx 0) 0x0000000000000000 .data
[1824](sec  3)(fl 0x00)(ty   0)(scl   3) (nx 0) 0x0000000000000008 .bss
[1825](sec  1)(fl 0x00)(ty   0)(scl   3) (nx 0) 0x00000000000135b0 .text
[1826](sec  1)(fl 0x00)(ty   0)(scl   3) (nx 0) 0x000000000001364c .text
[1827](sec  3)(fl 0x00)(ty   0)(scl   3) (nx 0) 0x0000000000000000 .data
[1828](sec  3)(fl 0x00)(ty   0)(scl   3) (nx 0) 0x0000000000000008 .bss
[1829](sec  1)(fl 0x00)(ty   0)(scl   3) (nx 0) 0x0000000000013650 .text
[1830](sec  1)(fl 0x00)(ty   0)(scl   3) (nx 0) 0x00000000000136b4 .text
[1831](sec  3)(fl 0x00)(ty   0)(scl   3) (nx 0) 0x0000000000000000 .data
[1832](sec  3)(fl 0x00)(ty   0)(scl   3) (nx 0) 0x0000000000000008 .bss
[1833](sec  1)(fl 0x00)(ty   0)(scl   3) (nx 0) 0x00000000000136b4 .text
[1834](sec  3)(fl 0x00)(ty   0)(scl   3) (nx 0) 0x0000000000000000 .data
[1835](sec  3)(fl 0x00)(ty   0)(scl   3) (nx 0) 0x0000000000000008 .bss
[1836](sec  1)(fl 0x00)(ty   0)(scl   3) (nx 0) 0x00000000000136b4 .text
[1837](sec  3)(fl 0x00)(ty   0)(scl   3) (nx 0) 0x0000000000000000 .data
[1838](sec  3)(fl 0x00)(ty   0)(scl   3) (nx 0) 0x0000000000000008 .bss
[1839](sec  1)(fl 0x00)(ty   0)(scl   3) (nx 0) 0x00000000000136b4 .text
[1840](sec  3)(fl 0x00)(ty   0)(scl   3) (nx 0) 0x0000000000000000 .data
[1841](sec  3)(fl 0x00)(ty   0)(scl   3) (nx 0) 0x0000000000000008 .bss
[1842](sec  1)(fl 0x00)(ty   0)(scl   3) (nx 0) 0x00000000000136b4 .text
[1843](sec  3)(fl 0x00)(ty   0)(scl   3) (nx 0) 0x0000000000000000 .data
[1844](sec  3)(fl 0x00)(ty   0)(scl   3) (nx 0) 0x0000000000000008 .bss
[1845](sec  1)(fl 0x00)(ty   0)(scl   3) (nx 0) 0x00000000000136b4 .text
[1846](sec  3)(fl 0x00)(ty   0)(scl   3) (nx 0) 0x0000000000000000 .data
[1847](sec  3)(fl 0x00)(ty   0)(scl   3) (nx 0) 0x0000000000000008 .bss
[1848](sec  1)(fl 0x00)(ty   0)(scl   3) (nx 0) 0x00000000000136b4 .text
[1849](sec  3)(fl 0x00)(ty   0)(scl   3) (nx 0) 0x0000000000000000 .data
[1850](sec  3)(fl 0x00)(ty   0)(scl   3) (nx 0) 0x0000000000000008 .bss
[1851](sec  1)(fl 0x00)(ty   0)(scl   3) (nx 0) 0x00000000000136b4 .text
[1852](sec  3)(fl 0x00)(ty   0)(scl   3) (nx 0) 0x0000000000000000 .data
[1853](sec  3)(fl 0x00)(ty   0)(scl   3) (nx 0) 0x0000000000000008 .bss
[1854](sec  1)(fl 0x00)(ty   0)(scl   3) (nx 0) 0x00000000000136c0 .text
[1855](sec  1)(fl 0x00)(ty   0)(scl   3) (nx 0) 0x00000000000136cc .text
[1856](sec  3)(fl 0x00)(ty   0)(scl   3) (nx 0) 0x0000000000000000 .data
[1857](sec  3)(fl 0x00)(ty   0)(scl   3) (nx 0) 0x0000000000000008 .bss
[1858](sec  1)(fl 0x00)(ty   0)(scl   3) (nx 0) 0x00000000000136d0 .text
[1859](sec  1)(fl 0x00)(ty   0)(scl   3) (nx 0) 0x0000000000013730 .text
[1860](sec  1)(fl 0x00)(ty  20)(scl   2) (nx 0) 0x0000000000013990 _ZN4core3num23_$LT$impl$u20$usize$GT$11checked_add17h89665779adfd69e3E
[1861](sec  1)(fl 0x00)(ty   0)(scl   3) (nx 0) 0x0000000000013764 .text
[1862](sec  3)(fl 0x00)(ty   0)(scl   3) (nx 0) 0x0000000000000000 .data
[1863](sec  3)(fl 0x00)(ty   0)(scl   3) (nx 0) 0x0000000000000008 .bss
[1864](sec  1)(fl 0x00)(ty   0)(scl   3) (nx 0) 0x0000000000013770 .text
[1865](sec  1)(fl 0x00)(ty   0)(scl   3) (nx 0) 0x0000000000013790 .text
[1866](sec  3)(fl 0x00)(ty   0)(scl   3) (nx 0) 0x0000000000000000 .data
[1867](sec  3)(fl 0x00)(ty   0)(scl   3) (nx 0) 0x0000000000000008 .bss
[1868](sec  1)(fl 0x00)(ty   0)(scl   3) (nx 0) 0x0000000000013790 .text
[1869](sec  1)(fl 0x00)(ty   0)(scl   3) (nx 0) 0x00000000000137cc .text
[1870](sec  3)(fl 0x00)(ty   0)(scl   3) (nx 0) 0x0000000000000000 .data
[1871](sec  3)(fl 0x00)(ty   0)(scl   3) (nx 0) 0x0000000000000008 .bss
[1872](sec  1)(fl 0x00)(ty   0)(scl   3) (nx 0) 0x00000000000137d0 .text
[1873](sec  2)(fl 0x00)(ty   0)(scl   3) (nx 0) 0x00000000000038c8 .rdata
[1874](sec  2)(fl 0x00)(ty   0)(scl   3) (nx 0) 0x00000000000038c8 __unnamed_1
[1875](sec  2)(fl 0x00)(ty   0)(scl   3) (nx 0) 0x00000000000038f1 .rdata
[1876](sec  2)(fl 0x00)(ty   0)(scl   3) (nx 0) 0x00000000000038f1 __unnamed_5
[1877](sec  2)(fl 0x00)(ty   0)(scl   3) (nx 0) 0x0000000000003968 .rdata
[1878](sec  2)(fl 0x00)(ty   0)(scl   3) (nx 0) 0x0000000000003968 __unnamed_2
[1879](sec  2)(fl 0x00)(ty   0)(scl   3) (nx 0) 0x0000000000003980 .rdata
[1880](sec  2)(fl 0x00)(ty   0)(scl   3) (nx 0) 0x0000000000003980 __unnamed_3
[1881](sec  2)(fl 0x00)(ty   0)(scl   3) (nx 0) 0x00000000000039c0 .rdata
[1882](sec  2)(fl 0x00)(ty   0)(scl   3) (nx 0) 0x00000000000039c0 __unnamed_4
[1883](sec  1)(fl 0x00)(ty  20)(scl   2) (nx 0) 0x0000000000013b70 _ZN4core10intrinsics23is_aligned_and_not_null17hb8be944b04f97d0bE
[1884](sec  1)(fl 0x00)(ty  20)(scl   2) (nx 0) 0x0000000000013b10 _ZN4core3num23_$LT$impl$u20$usize$GT$14saturating_mul17h3ebbfdbc795788d2E
[1885](sec  1)(fl 0x00)(ty   0)(scl   3) (nx 0) 0x000000000001388c .text
[1886](sec  3)(fl 0x00)(ty   0)(scl   3) (nx 0) 0x0000000000000000 .data
[1887](sec  3)(fl 0x00)(ty   0)(scl   3) (nx 0) 0x0000000000000008 .bss
[1888](sec  1)(fl 0x00)(ty   0)(scl   3) (nx 0) 0x0000000000013890 .text
[1889](sec  1)(fl 0x00)(ty   0)(scl   3) (nx 0) 0x00000000000138c0 .text
[1890](sec  1)(fl 0x00)(ty  20)(scl   3) (nx 0) 0x00000000000138c0 _ZN4core4char7convert68_$LT$impl$u20$core..convert..TryFrom$LT$u32$GT$$u20$for$u20$char$GT$8try_from17h241cce38ed04e190E
[1891](sec  1)(fl 0x00)(ty   0)(scl   3) (nx 0) 0x0000000000013940 .text
[1892](sec  2)(fl 0x00)(ty   0)(scl   3) (nx 0) 0x00000000000039d8 .rdata
[1893](sec  2)(fl 0x00)(ty   0)(scl   3) (nx 0) 0x00000000000039d8 __unnamed_2
[1894](sec  2)(fl 0x00)(ty   0)(scl   3) (nx 0) 0x0000000000003a50 .rdata
[1895](sec  2)(fl 0x00)(ty   0)(scl   3) (nx 0) 0x0000000000003a50 __unnamed_1
[1896](sec  1)(fl 0x00)(ty   0)(scl   3) (nx 0) 0x0000000000013968 .text
[1897](sec  3)(fl 0x00)(ty   0)(scl   3) (nx 0) 0x0000000000000000 .data
[1898](sec  3)(fl 0x00)(ty   0)(scl   3) (nx 0) 0x0000000000000008 .bss
[1899](sec  1)(fl 0x00)(ty   0)(scl   3) (nx 0) 0x0000000000013970 .text
[1900](sec  1)(fl 0x00)(ty   0)(scl   3) (nx 0) 0x0000000000013988 .text
[1901](sec  3)(fl 0x00)(ty   0)(scl   3) (nx 0) 0x0000000000000000 .data
[1902](sec  3)(fl 0x00)(ty   0)(scl   3) (nx 0) 0x0000000000000008 .bss
[1903](sec  1)(fl 0x00)(ty   0)(scl   3) (nx 0) 0x0000000000013988 .text
[1904](sec  3)(fl 0x00)(ty   0)(scl   3) (nx 0) 0x0000000000000000 .data
[1905](sec  3)(fl 0x00)(ty   0)(scl   3) (nx 0) 0x0000000000000008 .bss
[1906](sec  1)(fl 0x00)(ty   0)(scl   3) (nx 0) 0x0000000000013988 .text
[1907](sec  3)(fl 0x00)(ty   0)(scl   3) (nx 0) 0x0000000000000000 .data
[1908](sec  3)(fl 0x00)(ty   0)(scl   3) (nx 0) 0x0000000000000008 .bss
[1909](sec  1)(fl 0x00)(ty   0)(scl   3) (nx 0) 0x0000000000013988 .text
[1910](sec  3)(fl 0x00)(ty   0)(scl   3) (nx 0) 0x0000000000000000 .data
[1911](sec  3)(fl 0x00)(ty   0)(scl   3) (nx 0) 0x0000000000000008 .bss
[1912](sec  1)(fl 0x00)(ty   0)(scl   3) (nx 0) 0x0000000000013988 .text
[1913](sec  3)(fl 0x00)(ty   0)(scl   3) (nx 0) 0x0000000000000000 .data
[1914](sec  3)(fl 0x00)(ty   0)(scl   3) (nx 0) 0x0000000000000008 .bss
[1915](sec  1)(fl 0x00)(ty   0)(scl   3) (nx 0) 0x0000000000013988 .text
[1916](sec  3)(fl 0x00)(ty   0)(scl   3) (nx 0) 0x0000000000000000 .data
[1917](sec  3)(fl 0x00)(ty   0)(scl   3) (nx 0) 0x0000000000000008 .bss
[1918](sec  1)(fl 0x00)(ty   0)(scl   3) (nx 0) 0x0000000000013988 .text
[1919](sec  3)(fl 0x00)(ty   0)(scl   3) (nx 0) 0x0000000000000000 .data
[1920](sec  3)(fl 0x00)(ty   0)(scl   3) (nx 0) 0x0000000000000008 .bss
[1921](sec  1)(fl 0x00)(ty   0)(scl   3) (nx 0) 0x0000000000013990 .text
[1922](sec  1)(fl 0x00)(ty   0)(scl   3) (nx 0) 0x0000000000013a50 .text
[1923](sec  1)(fl 0x00)(ty  20)(scl   3) (nx 0) 0x0000000000013a50 _ZN4core3num23_$LT$impl$u20$usize$GT$11checked_mul17h31c7696fa3cd767bE
[1924](sec  1)(fl 0x00)(ty   0)(scl   3) (nx 0) 0x0000000000013b10 .text
[1925](sec  1)(fl 0x00)(ty   0)(scl   3) (nx 0) 0x0000000000013b64 .text
[1926](sec  3)(fl 0x00)(ty   0)(scl   3) (nx 0) 0x0000000000000000 .data
[1927](sec  3)(fl 0x00)(ty   0)(scl   3) (nx 0) 0x0000000000000008 .bss
[1928](sec  1)(fl 0x00)(ty   0)(scl   3) (nx 0) 0x0000000000013b70 .text
[1929](sec  2)(fl 0x00)(ty   0)(scl   3) (nx 0) 0x0000000000003a68 .rdata
[1930](sec  2)(fl 0x00)(ty   0)(scl   3) (nx 0) 0x0000000000003a68 __unnamed_2
[1931](sec  2)(fl 0x00)(ty   0)(scl   3) (nx 0) 0x0000000000003ae0 .rdata
[1932](sec  2)(fl 0x00)(ty   0)(scl   3) (nx 0) 0x0000000000003ae0 __unnamed_1
[1933](sec  2)(fl 0x00)(ty   0)(scl   3) (nx 0) 0x0000000000003b00 .rdata
[1934](sec  2)(fl 0x00)(ty   0)(scl   3) (nx 0) 0x0000000000003b00 str.0
[1935](sec  1)(fl 0x00)(ty  20)(scl   2) (nx 0) 0x0000000000013bf0 _ZN4core3ptr9const_ptr33_$LT$impl$u20$$BP$const$u20$T$GT$7is_null17h5466544d4e57825dE
[1936](sec  1)(fl 0x00)(ty   0)(scl   3) (nx 0) 0x0000000000013be8 .text
[1937](sec  3)(fl 0x00)(ty   0)(scl   3) (nx 0) 0x0000000000000000 .data
[1938](sec  3)(fl 0x00)(ty   0)(scl   3) (nx 0) 0x0000000000000008 .bss
[1939](sec  1)(fl 0x00)(ty   0)(scl   3) (nx 0) 0x0000000000013bf0 .text


